Archive member included to satisfy reference by file (symbol)

E:\PD_Fan\PD_Fan\Software\EXAM\SRC\StdPeriphDriver\libISP573.a(ISP573.o)
                              ./StdPeriphDriver/CH57x_pwr.o (FLASH_EEPROM_CMD)
E:\PD_Fan\PD_Fan\Software\EXAM\BLE\LIB\libCH57xBLE.a(message.o)
                              ./HAL/MCU.o (tmos_msg_deallocate)
E:\PD_Fan\PD_Fan\Software\EXAM\BLE\LIB\libCH57xBLE.a(tmos.o)
                              ./Profile/debug_service.o (tmos_memcpy)
E:\PD_Fan\PD_Fan\Software\EXAM\BLE\LIB\libCH57xBLE.a(tmos_hw.o)
                              E:\PD_Fan\PD_Fan\Software\EXAM\BLE\LIB\libCH57xBLE.a(tmos.o) (RTC_Get32KClock)
E:\PD_Fan\PD_Fan\Software\EXAM\BLE\LIB\libCH57xBLE.a(tmos_snv.o)
                              E:\PD_Fan\PD_Fan\Software\EXAM\BLE\LIB\libCH57xBLE.a(tmos.o) (tmos_snv_init)
E:\PD_Fan\PD_Fan\Software\EXAM\BLE\LIB\libCH57xBLE.a(att.o)
                              ./Profile/debug_service.o (ATT_GetMTU)
E:\PD_Fan\PD_Fan\Software\EXAM\BLE\LIB\libCH57xBLE.a(att_client.o)
                              E:\PD_Fan\PD_Fan\Software\EXAM\BLE\LIB\libCH57xBLE.a(att.o) (ATT_HandleValueConfirmation)
E:\PD_Fan\PD_Fan\Software\EXAM\BLE\LIB\libCH57xBLE.a(gap.o)
                              ./APP/peripheral.o (GAP_SetParamValue)
E:\PD_Fan\PD_Fan\Software\EXAM\BLE\LIB\libCH57xBLE.a(gap_central.o)
                              E:\PD_Fan\PD_Fan\Software\EXAM\BLE\LIB\libCH57xBLE.a(gap.o) (GAP_CentralParamInit)
E:\PD_Fan\PD_Fan\Software\EXAM\BLE\LIB\libCH57xBLE.a(gap_peripheral.o)
                              E:\PD_Fan\PD_Fan\Software\EXAM\BLE\LIB\libCH57xBLE.a(gap.o) (GAP_PeripheralParamInit)
E:\PD_Fan\PD_Fan\Software\EXAM\BLE\LIB\libCH57xBLE.a(gapgattserver.o)
                              ./APP/peripheral.o (GGS_SetParameter)
E:\PD_Fan\PD_Fan\Software\EXAM\BLE\LIB\libCH57xBLE.a(gatt.o)
                              ./Profile/debug_service.o (GATT_bm_alloc)
E:\PD_Fan\PD_Fan\Software\EXAM\BLE\LIB\libCH57xBLE.a(gatt_uuid.o)
                              E:\PD_Fan\PD_Fan\Software\EXAM\BLE\LIB\libCH57xBLE.a(gatt.o) (serviceChangedUUID)
E:\PD_Fan\PD_Fan\Software\EXAM\BLE\LIB\libCH57xBLE.a(gattclientapp.o)
                              E:\PD_Fan\PD_Fan\Software\EXAM\BLE\LIB\libCH57xBLE.a(gatt.o) (gattGetClientStatus)
E:\PD_Fan\PD_Fan\Software\EXAM\BLE\LIB\libCH57xBLE.a(gattservapp.o)
                              ./Profile/debug_service.o (GATTServApp_ReadCharCfg)
E:\PD_Fan\PD_Fan\Software\EXAM\BLE\LIB\libCH57xBLE.a(l2cap.o)
                              E:\PD_Fan\PD_Fan\Software\EXAM\BLE\LIB\libCH57xBLE.a(att.o) (L2CAP_GetMTU)
E:\PD_Fan\PD_Fan\Software\EXAM\BLE\LIB\libCH57xBLE.a(l2cap_input.o)
                              E:\PD_Fan\PD_Fan\Software\EXAM\BLE\LIB\libCH57xBLE.a(l2cap.o) (l2capProcessRxData)
E:\PD_Fan\PD_Fan\Software\EXAM\BLE\LIB\libCH57xBLE.a(l2cap_output.o)
                              E:\PD_Fan\PD_Fan\Software\EXAM\BLE\LIB\libCH57xBLE.a(l2cap_input.o) (l2capNotifyData)
E:\PD_Fan\PD_Fan\Software\EXAM\BLE\LIB\libCH57xBLE.a(l2cap_sdu.o)
                              E:\PD_Fan\PD_Fan\Software\EXAM\BLE\LIB\libCH57xBLE.a(l2cap_input.o) (l2capBuildDisconnectRsp)
E:\PD_Fan\PD_Fan\Software\EXAM\BLE\LIB\libCH57xBLE.a(linkdb.o)
                              E:\PD_Fan\PD_Fan\Software\EXAM\BLE\LIB\libCH57xBLE.a(l2cap.o) (linkDB_Init)
E:\PD_Fan\PD_Fan\Software\EXAM\BLE\LIB\libCH57xBLE.a(sm.o)
                              E:\PD_Fan\PD_Fan\Software\EXAM\BLE\LIB\libCH57xBLE.a(gap.o) (smStartEncryption)
E:\PD_Fan\PD_Fan\Software\EXAM\BLE\LIB\libCH57xBLE.a(host_input.o)
                              E:\PD_Fan\PD_Fan\Software\EXAM\BLE\LIB\libCH57xBLE.a(gap.o) (gBleHostPara)
E:\PD_Fan\PD_Fan\Software\EXAM\BLE\LIB\libCH57xBLE.a(host_output.o)
                              E:\PD_Fan\PD_Fan\Software\EXAM\BLE\LIB\libCH57xBLE.a(gap.o) (HCI_DisconnectCmd)
E:\PD_Fan\PD_Fan\Software\EXAM\BLE\LIB\libCH57xBLE.a(ll_connect.o)
                              E:\PD_Fan\PD_Fan\Software\EXAM\BLE\LIB\libCH57xBLE.a(tmos.o) (LL_GetNextConnectEventTime)
E:\PD_Fan\PD_Fan\Software\EXAM\BLE\LIB\libCH57xBLE.a(ll_core.o)
                              E:\PD_Fan\PD_Fan\Software\EXAM\BLE\LIB\libCH57xBLE.a(ll_connect.o) (LL_CoreGetCore)
E:\PD_Fan\PD_Fan\Software\EXAM\BLE\LIB\libCH57xBLE.a(ll_hop.o)
                              E:\PD_Fan\PD_Fan\Software\EXAM\BLE\LIB\libCH57xBLE.a(ll_connect.o) (LL_HopGetChannel)
E:\PD_Fan\PD_Fan\Software\EXAM\BLE\LIB\libCH57xBLE.a(ll_master.o)
                              E:\PD_Fan\PD_Fan\Software\EXAM\BLE\LIB\libCH57xBLE.a(ll_connect.o) (ll_master_process)
E:\PD_Fan\PD_Fan\Software\EXAM\BLE\LIB\libCH57xBLE.a(ll_pdu.o)
                              E:\PD_Fan\PD_Fan\Software\EXAM\BLE\LIB\libCH57xBLE.a(ll_master.o) (LL_ConnectionUpdateReq)
E:\PD_Fan\PD_Fan\Software\EXAM\BLE\LIB\libCH57xBLE.a(ll_report.o)
                              E:\PD_Fan\PD_Fan\Software\EXAM\BLE\LIB\libCH57xBLE.a(ll_connect.o) (LL_ReportGenerateEvent)
E:\PD_Fan\PD_Fan\Software\EXAM\BLE\LIB\libCH57xBLE.a(ll_scan.o)
                              E:\PD_Fan\PD_Fan\Software\EXAM\BLE\LIB\libCH57xBLE.a(ll_master.o) (LL_ScanEnable)
E:\PD_Fan\PD_Fan\Software\EXAM\BLE\LIB\libCH57xBLE.a(ll_slave.o)
                              E:\PD_Fan\PD_Fan\Software\EXAM\BLE\LIB\libCH57xBLE.a(ll_connect.o) (ll_hw_timer_slave_recv_timeout)
E:\PD_Fan\PD_Fan\Software\EXAM\BLE\LIB\libCH57xBLE.a(ll_whitelist.o)
                              E:\PD_Fan\PD_Fan\Software\EXAM\BLE\LIB\libCH57xBLE.a(ll_scan.o) (LL_WhitelistLookup)
E:\PD_Fan\PD_Fan\Software\EXAM\BLE\LIB\libCH57xBLE.a(aes.o)
                              E:\PD_Fan\PD_Fan\Software\EXAM\BLE\LIB\libCH57xBLE.a(sm.o) (LL_Encrypt)
E:\PD_Fan\PD_Fan\Software\EXAM\BLE\LIB\libCH57xBLE.a(bb.o)
                              E:\PD_Fan\PD_Fan\Software\EXAM\BLE\LIB\libCH57xBLE.a(tmos.o) (BB_DevInit)
E:\PD_Fan\PD_Fan\Software\EXAM\BLE\LIB\libCH57xBLE.a(dma.o)
                              E:\PD_Fan\PD_Fan\Software\EXAM\BLE\LIB\libCH57xBLE.a(tmos.o) (DMA_DevInit)
E:\PD_Fan\PD_Fan\Software\EXAM\BLE\LIB\libCH57xBLE.a(ip.o)
                              E:\PD_Fan\PD_Fan\Software\EXAM\BLE\LIB\libCH57xBLE.a(ll_master.o) (ll_tx_wait_finish)
E:\PD_Fan\PD_Fan\Software\EXAM\BLE\LIB\libCH57xBLE.a(lle.o)
                              E:\PD_Fan\PD_Fan\Software\EXAM\BLE\LIB\libCH57xBLE.a(tmos.o) (LLE_DevInit)
E:\PD_Fan\PD_Fan\Software\EXAM\BLE\LIB\libCH57xBLE.a(rf_fh.o)
                              E:\PD_Fan\PD_Fan\Software\EXAM\BLE\LIB\libCH57xBLE.a(tmos.o) (RF_FrequencyHoppingChange)
E:\PD_Fan\PD_Fan\Software\EXAM\BLE\LIB\libCH57xBLE.a(rfend.o)
                              E:\PD_Fan\PD_Fan\Software\EXAM\BLE\LIB\libCH57xBLE.a(ip.o) (RFEND_DevInit)
E:\PD_Fan\PD_Fan\Software\EXAM\BLE\LIB\libCH57xBLE.a(api_c.o)
                              E:\PD_Fan\PD_Fan\Software\EXAM\BLE\LIB\libCH57xBLE.a(host_output.o) (API_DisconnectCmd)
E:\PD_Fan\PD_Fan\Software\EXAM\BLE\LIB\libCH57xBLE.a(ctl_input.o)
                              E:\PD_Fan\PD_Fan\Software\EXAM\BLE\LIB\libCH57xBLE.a(api_c.o) (LL_ReceiverTest)
E:\PD_Fan\PD_Fan\Software\EXAM\BLE\LIB\libCH57xBLE.a(ctl_output.o)
                              E:\PD_Fan\PD_Fan\Software\EXAM\BLE\LIB\libCH57xBLE.a(api_c.o) (HCI_SetEventMask)
E:\PD_Fan\PD_Fan\Software\EXAM\BLE\LIB\libCH57xBLE.a(broadcaster.o)
                              ./APP/peripheral.o (GAPRole_BroadcasterSetCB)
E:\PD_Fan\PD_Fan\Software\EXAM\BLE\LIB\libCH57xBLE.a(gapbondmgr.o)
                              E:\PD_Fan\PD_Fan\Software\EXAM\BLE\LIB\libCH57xBLE.a(gap_central.o) (GAPBondMgr_GetParameter)
E:\PD_Fan\PD_Fan\Software\EXAM\BLE\LIB\libCH57xBLE.a(peripheral.o)
                              ./APP/peripheral.o (GAPRole_PeripheralConnParamUpdateReq)
E:\PD_Fan\PD_Fan\Software\EXAM\BLE\LIB\libCH57xBLE.a(role.o)
                              E:\PD_Fan\PD_Fan\Software\EXAM\BLE\LIB\libCH57xBLE.a(gap.o) (GAPRole_ParamInit)
E:\PD_Fan\PD_Fan\Software\EXAM\BLE\LIB\libCH57xBLE.a(memory.o)
                              E:\PD_Fan\PD_Fan\Software\EXAM\BLE\LIB\libCH57xBLE.a(tmos.o) (tmos_memory_init)
E:\PD_Fan\PD_Fan\Software\EXAM\BLE\LIB\libCH57xBLE.a(att_server.o)
                              E:\PD_Fan\PD_Fan\Software\EXAM\BLE\LIB\libCH57xBLE.a(gattservapp.o) (ATT_ParseExchangeMTUReq)
E:\PD_Fan\PD_Fan\Software\EXAM\BLE\LIB\libCH57xBLE.a(ll.o)
                              E:\PD_Fan\PD_Fan\Software\EXAM\BLE\LIB\libCH57xBLE.a(ctl_input.o) (ll_get_prime_number)
E:\PD_Fan\PD_Fan\Software\EXAM\BLE\LIB\libCH57xBLE.a(ll_advertise.o)
                              E:\PD_Fan\PD_Fan\Software\EXAM\BLE\LIB\libCH57xBLE.a(ctl_input.o) (LL_AdvertiseToStandby)
E:\PD_Fan\PD_Fan\Software\EXAM\BLE\LIB\libCH57xBLE.a(ll_initiate.o)
                              E:\PD_Fan\PD_Fan\Software\EXAM\BLE\LIB\libCH57xBLE.a(ctl_input.o) (LL_InitiateToStandby)
E:\PD_Fan\PD_Fan\Software\EXAM\BLE\LIB\libCH57xBLE.a(ll_resolvinglist.o)
                              E:\PD_Fan\PD_Fan\Software\EXAM\BLE\LIB\libCH57xBLE.a(ll_advertise.o) (ll_resolvinglist_checkRPA)
E:\PD_Fan\PD_Fan\Software\EXAM\BLE\LIB\libCH57xBLE.a(central.o)
                              E:\PD_Fan\PD_Fan\Software\EXAM\BLE\LIB\libCH57xBLE.a(role.o) (GAPRole_CentralEnable)
E:\PD_Fan\PD_Fan\Software\EXAM\BLE\LIB\libCH57xBLE.a(observer.o)
                              E:\PD_Fan\PD_Fan\Software\EXAM\BLE\LIB\libCH57xBLE.a(role.o) (GAPRole_ObserverEnable)
E:\PD_Fan\PD_Fan\Software\EXAM\BLE\LIB\libCH57xBLE.a(ll_address.o)
                              E:\PD_Fan\PD_Fan\Software\EXAM\BLE\LIB\libCH57xBLE.a(ll_resolvinglist.o) (LL_AddrGenerateResolvableAddress)
c:/mounriver/mounriver_studio/toolchain/risc-v embedded gcc/bin/../lib/gcc/riscv-none-embed/8.2.0/rv32imac/ilp32\libgcc.a(_lshrdi3.o)
                              E:\PD_Fan\PD_Fan\Software\EXAM\BLE\LIB\libCH57xBLE.a(ll_hop.o) (__lshrdi3)
c:/mounriver/mounriver_studio/toolchain/risc-v embedded gcc/bin/../lib/gcc/riscv-none-embed/8.2.0/rv32imac/ilp32\libgcc.a(_ashrdi3.o)
                              E:\PD_Fan\PD_Fan\Software\EXAM\BLE\LIB\libCH57xBLE.a(ctl_input.o) (__ashrdi3)
c:/mounriver/mounriver_studio/toolchain/risc-v embedded gcc/bin/../lib/gcc/riscv-none-embed/8.2.0/rv32imac/ilp32\libgcc.a(_divdi3.o)
                              E:\PD_Fan\PD_Fan\Software\EXAM\BLE\LIB\libCH57xBLE.a(ll_connect.o) (__divdi3)
c:/mounriver/mounriver_studio/toolchain/risc-v embedded gcc/bin/../lib/gcc/riscv-none-embed/8.2.0/rv32imac/ilp32\libgcc.a(_udivdi3.o)
                              E:\PD_Fan\PD_Fan\Software\EXAM\BLE\LIB\libCH57xBLE.a(ll_connect.o) (__udivdi3)
c:/mounriver/mounriver_studio/toolchain/risc-v embedded gcc/bin/../lib/gcc/riscv-none-embed/8.2.0/rv32imac/ilp32\libgcc.a(muldf3.o)
                              ./StdPeriphDriver/CH57x_clk.o (__muldf3)
c:/mounriver/mounriver_studio/toolchain/risc-v embedded gcc/bin/../lib/gcc/riscv-none-embed/8.2.0/rv32imac/ilp32\libgcc.a(floatsidf.o)
                              ./StdPeriphDriver/CH57x_clk.o (__floatsidf)
c:/mounriver/mounriver_studio/toolchain/risc-v embedded gcc/bin/../lib/gcc/riscv-none-embed/8.2.0/rv32imac/ilp32\libgcc.a(mulsf3.o)
                              ./StdPeriphDriver/CH57x_clk.o (__mulsf3)
c:/mounriver/mounriver_studio/toolchain/risc-v embedded gcc/bin/../lib/gcc/riscv-none-embed/8.2.0/rv32imac/ilp32\libgcc.a(fixsfsi.o)
                              ./StdPeriphDriver/CH57x_clk.o (__fixsfsi)
c:/mounriver/mounriver_studio/toolchain/risc-v embedded gcc/bin/../lib/gcc/riscv-none-embed/8.2.0/rv32imac/ilp32\libgcc.a(fixunssfsi.o)
                              ./APP/Fan.o (__fixunssfsi)
c:/mounriver/mounriver_studio/toolchain/risc-v embedded gcc/bin/../lib/gcc/riscv-none-embed/8.2.0/rv32imac/ilp32\libgcc.a(floatsisf.o)
                              ./StdPeriphDriver/CH57x_clk.o (__floatsisf)
c:/mounriver/mounriver_studio/toolchain/risc-v embedded gcc/bin/../lib/gcc/riscv-none-embed/8.2.0/rv32imac/ilp32\libgcc.a(truncdfsf2.o)
                              ./StdPeriphDriver/CH57x_clk.o (__truncdfsf2)
c:/mounriver/mounriver_studio/toolchain/risc-v embedded gcc/bin/../lib/gcc/riscv-none-embed/8.2.0/rv32imac/ilp32\libgcc.a(_clz.o)
                              c:/mounriver/mounriver_studio/toolchain/risc-v embedded gcc/bin/../lib/gcc/riscv-none-embed/8.2.0/rv32imac/ilp32\libgcc.a(_divdi3.o) (__clz_tab)
c:/mounriver/mounriver_studio/toolchain/risc-v embedded gcc/bin/../lib/gcc/riscv-none-embed/8.2.0/rv32imac/ilp32\libgcc.a(_clzsi2.o)
                              c:/mounriver/mounriver_studio/toolchain/risc-v embedded gcc/bin/../lib/gcc/riscv-none-embed/8.2.0/rv32imac/ilp32\libgcc.a(muldf3.o) (__clzsi2)
c:/mounriver/mounriver_studio/toolchain/risc-v embedded gcc/bin/../lib/gcc/riscv-none-embed/8.2.0/../../../../riscv-none-embed/lib/rv32imac/ilp32\libg_nano.a(lib_a-memcpy.o)
                              E:\PD_Fan\PD_Fan\Software\EXAM\BLE\LIB\libCH57xBLE.a(gapgattserver.o) (memcpy)
c:/mounriver/mounriver_studio/toolchain/risc-v embedded gcc/bin/../lib/gcc/riscv-none-embed/8.2.0/../../../../riscv-none-embed/lib/rv32imac/ilp32\libg_nano.a(lib_a-memset.o)
                              ./Profile/debug_service.o (memset)
c:/mounriver/mounriver_studio/toolchain/risc-v embedded gcc/bin/../lib/gcc/riscv-none-embed/8.2.0/../../../../riscv-none-embed/lib/rv32imac/ilp32\libg_nano.a(lib_a-printf.o)
                              ./HAL/MCU.o (printf)
c:/mounriver/mounriver_studio/toolchain/risc-v embedded gcc/bin/../lib/gcc/riscv-none-embed/8.2.0/../../../../riscv-none-embed/lib/rv32imac/ilp32\libg_nano.a(lib_a-puts.o)
                              ./Profile/debug_service.o (puts)
c:/mounriver/mounriver_studio/toolchain/risc-v embedded gcc/bin/../lib/gcc/riscv-none-embed/8.2.0/../../../../riscv-none-embed/lib/rv32imac/ilp32\libg_nano.a(lib_a-vsprintf.o)
                              ./Profile/debug_service.o (vsprintf)
c:/mounriver/mounriver_studio/toolchain/risc-v embedded gcc/bin/../lib/gcc/riscv-none-embed/8.2.0/../../../../riscv-none-embed/lib/rv32imac/ilp32\libg_nano.a(lib_a-wbuf.o)
                              c:/mounriver/mounriver_studio/toolchain/risc-v embedded gcc/bin/../lib/gcc/riscv-none-embed/8.2.0/../../../../riscv-none-embed/lib/rv32imac/ilp32\libg_nano.a(lib_a-puts.o) (__swbuf_r)
c:/mounriver/mounriver_studio/toolchain/risc-v embedded gcc/bin/../lib/gcc/riscv-none-embed/8.2.0/../../../../riscv-none-embed/lib/rv32imac/ilp32\libg_nano.a(lib_a-wsetup.o)
                              c:/mounriver/mounriver_studio/toolchain/risc-v embedded gcc/bin/../lib/gcc/riscv-none-embed/8.2.0/../../../../riscv-none-embed/lib/rv32imac/ilp32\libg_nano.a(lib_a-puts.o) (__swsetup_r)
c:/mounriver/mounriver_studio/toolchain/risc-v embedded gcc/bin/../lib/gcc/riscv-none-embed/8.2.0/../../../../riscv-none-embed/lib/rv32imac/ilp32\libg_nano.a(lib_a-fflush.o)
                              c:/mounriver/mounriver_studio/toolchain/risc-v embedded gcc/bin/../lib/gcc/riscv-none-embed/8.2.0/../../../../riscv-none-embed/lib/rv32imac/ilp32\libg_nano.a(lib_a-wbuf.o) (_fflush_r)
c:/mounriver/mounriver_studio/toolchain/risc-v embedded gcc/bin/../lib/gcc/riscv-none-embed/8.2.0/../../../../riscv-none-embed/lib/rv32imac/ilp32\libg_nano.a(lib_a-findfp.o)
                              c:/mounriver/mounriver_studio/toolchain/risc-v embedded gcc/bin/../lib/gcc/riscv-none-embed/8.2.0/../../../../riscv-none-embed/lib/rv32imac/ilp32\libg_nano.a(lib_a-printf.o) (__sinit)
c:/mounriver/mounriver_studio/toolchain/risc-v embedded gcc/bin/../lib/gcc/riscv-none-embed/8.2.0/../../../../riscv-none-embed/lib/rv32imac/ilp32\libg_nano.a(lib_a-fwalk.o)
                              c:/mounriver/mounriver_studio/toolchain/risc-v embedded gcc/bin/../lib/gcc/riscv-none-embed/8.2.0/../../../../riscv-none-embed/lib/rv32imac/ilp32\libg_nano.a(lib_a-findfp.o) (_fwalk)
c:/mounriver/mounriver_studio/toolchain/risc-v embedded gcc/bin/../lib/gcc/riscv-none-embed/8.2.0/../../../../riscv-none-embed/lib/rv32imac/ilp32\libg_nano.a(lib_a-impure.o)
                              c:/mounriver/mounriver_studio/toolchain/risc-v embedded gcc/bin/../lib/gcc/riscv-none-embed/8.2.0/../../../../riscv-none-embed/lib/rv32imac/ilp32\libg_nano.a(lib_a-fflush.o) (_global_impure_ptr)
c:/mounriver/mounriver_studio/toolchain/risc-v embedded gcc/bin/../lib/gcc/riscv-none-embed/8.2.0/../../../../riscv-none-embed/lib/rv32imac/ilp32\libg_nano.a(lib_a-makebuf.o)
                              c:/mounriver/mounriver_studio/toolchain/risc-v embedded gcc/bin/../lib/gcc/riscv-none-embed/8.2.0/../../../../riscv-none-embed/lib/rv32imac/ilp32\libg_nano.a(lib_a-wsetup.o) (__smakebuf_r)
c:/mounriver/mounriver_studio/toolchain/risc-v embedded gcc/bin/../lib/gcc/riscv-none-embed/8.2.0/../../../../riscv-none-embed/lib/rv32imac/ilp32\libg_nano.a(lib_a-nano-freer.o)
                              c:/mounriver/mounriver_studio/toolchain/risc-v embedded gcc/bin/../lib/gcc/riscv-none-embed/8.2.0/../../../../riscv-none-embed/lib/rv32imac/ilp32\libg_nano.a(lib_a-wsetup.o) (_free_r)
c:/mounriver/mounriver_studio/toolchain/risc-v embedded gcc/bin/../lib/gcc/riscv-none-embed/8.2.0/../../../../riscv-none-embed/lib/rv32imac/ilp32\libg_nano.a(lib_a-nano-mallocr.o)
                              c:/mounriver/mounriver_studio/toolchain/risc-v embedded gcc/bin/../lib/gcc/riscv-none-embed/8.2.0/../../../../riscv-none-embed/lib/rv32imac/ilp32\libg_nano.a(lib_a-findfp.o) (_malloc_r)
c:/mounriver/mounriver_studio/toolchain/risc-v embedded gcc/bin/../lib/gcc/riscv-none-embed/8.2.0/../../../../riscv-none-embed/lib/rv32imac/ilp32\libg_nano.a(lib_a-nano-svfprintf.o)
                              c:/mounriver/mounriver_studio/toolchain/risc-v embedded gcc/bin/../lib/gcc/riscv-none-embed/8.2.0/../../../../riscv-none-embed/lib/rv32imac/ilp32\libg_nano.a(lib_a-vsprintf.o) (_svfprintf_r)
c:/mounriver/mounriver_studio/toolchain/risc-v embedded gcc/bin/../lib/gcc/riscv-none-embed/8.2.0/../../../../riscv-none-embed/lib/rv32imac/ilp32\libg_nano.a(lib_a-nano-vfprintf.o)
                              c:/mounriver/mounriver_studio/toolchain/risc-v embedded gcc/bin/../lib/gcc/riscv-none-embed/8.2.0/../../../../riscv-none-embed/lib/rv32imac/ilp32\libg_nano.a(lib_a-printf.o) (_vfprintf_r)
c:/mounriver/mounriver_studio/toolchain/risc-v embedded gcc/bin/../lib/gcc/riscv-none-embed/8.2.0/../../../../riscv-none-embed/lib/rv32imac/ilp32\libg_nano.a(lib_a-nano-vfprintf_i.o)
                              c:/mounriver/mounriver_studio/toolchain/risc-v embedded gcc/bin/../lib/gcc/riscv-none-embed/8.2.0/../../../../riscv-none-embed/lib/rv32imac/ilp32\libg_nano.a(lib_a-nano-svfprintf.o) (_printf_i)
c:/mounriver/mounriver_studio/toolchain/risc-v embedded gcc/bin/../lib/gcc/riscv-none-embed/8.2.0/../../../../riscv-none-embed/lib/rv32imac/ilp32\libg_nano.a(lib_a-sbrkr.o)
                              c:/mounriver/mounriver_studio/toolchain/risc-v embedded gcc/bin/../lib/gcc/riscv-none-embed/8.2.0/../../../../riscv-none-embed/lib/rv32imac/ilp32\libg_nano.a(lib_a-nano-mallocr.o) (_sbrk_r)
c:/mounriver/mounriver_studio/toolchain/risc-v embedded gcc/bin/../lib/gcc/riscv-none-embed/8.2.0/../../../../riscv-none-embed/lib/rv32imac/ilp32\libg_nano.a(lib_a-stdio.o)
                              c:/mounriver/mounriver_studio/toolchain/risc-v embedded gcc/bin/../lib/gcc/riscv-none-embed/8.2.0/../../../../riscv-none-embed/lib/rv32imac/ilp32\libg_nano.a(lib_a-findfp.o) (__sread)
c:/mounriver/mounriver_studio/toolchain/risc-v embedded gcc/bin/../lib/gcc/riscv-none-embed/8.2.0/../../../../riscv-none-embed/lib/rv32imac/ilp32\libg_nano.a(lib_a-writer.o)
                              c:/mounriver/mounriver_studio/toolchain/risc-v embedded gcc/bin/../lib/gcc/riscv-none-embed/8.2.0/../../../../riscv-none-embed/lib/rv32imac/ilp32\libg_nano.a(lib_a-stdio.o) (_write_r)
c:/mounriver/mounriver_studio/toolchain/risc-v embedded gcc/bin/../lib/gcc/riscv-none-embed/8.2.0/../../../../riscv-none-embed/lib/rv32imac/ilp32\libg_nano.a(lib_a-closer.o)
                              c:/mounriver/mounriver_studio/toolchain/risc-v embedded gcc/bin/../lib/gcc/riscv-none-embed/8.2.0/../../../../riscv-none-embed/lib/rv32imac/ilp32\libg_nano.a(lib_a-stdio.o) (_close_r)
c:/mounriver/mounriver_studio/toolchain/risc-v embedded gcc/bin/../lib/gcc/riscv-none-embed/8.2.0/../../../../riscv-none-embed/lib/rv32imac/ilp32\libg_nano.a(lib_a-fstatr.o)
                              c:/mounriver/mounriver_studio/toolchain/risc-v embedded gcc/bin/../lib/gcc/riscv-none-embed/8.2.0/../../../../riscv-none-embed/lib/rv32imac/ilp32\libg_nano.a(lib_a-makebuf.o) (_fstat_r)
c:/mounriver/mounriver_studio/toolchain/risc-v embedded gcc/bin/../lib/gcc/riscv-none-embed/8.2.0/../../../../riscv-none-embed/lib/rv32imac/ilp32\libg_nano.a(lib_a-fvwrite.o)
                              c:/mounriver/mounriver_studio/toolchain/risc-v embedded gcc/bin/../lib/gcc/riscv-none-embed/8.2.0/../../../../riscv-none-embed/lib/rv32imac/ilp32\libg_nano.a(lib_a-nano-vfprintf.o) (__sfvwrite_r)
c:/mounriver/mounriver_studio/toolchain/risc-v embedded gcc/bin/../lib/gcc/riscv-none-embed/8.2.0/../../../../riscv-none-embed/lib/rv32imac/ilp32\libg_nano.a(lib_a-isattyr.o)
                              c:/mounriver/mounriver_studio/toolchain/risc-v embedded gcc/bin/../lib/gcc/riscv-none-embed/8.2.0/../../../../riscv-none-embed/lib/rv32imac/ilp32\libg_nano.a(lib_a-makebuf.o) (_isatty_r)
c:/mounriver/mounriver_studio/toolchain/risc-v embedded gcc/bin/../lib/gcc/riscv-none-embed/8.2.0/../../../../riscv-none-embed/lib/rv32imac/ilp32\libg_nano.a(lib_a-lseekr.o)
                              c:/mounriver/mounriver_studio/toolchain/risc-v embedded gcc/bin/../lib/gcc/riscv-none-embed/8.2.0/../../../../riscv-none-embed/lib/rv32imac/ilp32\libg_nano.a(lib_a-stdio.o) (_lseek_r)
c:/mounriver/mounriver_studio/toolchain/risc-v embedded gcc/bin/../lib/gcc/riscv-none-embed/8.2.0/../../../../riscv-none-embed/lib/rv32imac/ilp32\libg_nano.a(lib_a-memchr.o)
                              c:/mounriver/mounriver_studio/toolchain/risc-v embedded gcc/bin/../lib/gcc/riscv-none-embed/8.2.0/../../../../riscv-none-embed/lib/rv32imac/ilp32\libg_nano.a(lib_a-nano-svfprintf.o) (memchr)
c:/mounriver/mounriver_studio/toolchain/risc-v embedded gcc/bin/../lib/gcc/riscv-none-embed/8.2.0/../../../../riscv-none-embed/lib/rv32imac/ilp32\libg_nano.a(lib_a-memmove.o)
                              c:/mounriver/mounriver_studio/toolchain/risc-v embedded gcc/bin/../lib/gcc/riscv-none-embed/8.2.0/../../../../riscv-none-embed/lib/rv32imac/ilp32\libg_nano.a(lib_a-nano-svfprintf.o) (memmove)
c:/mounriver/mounriver_studio/toolchain/risc-v embedded gcc/bin/../lib/gcc/riscv-none-embed/8.2.0/../../../../riscv-none-embed/lib/rv32imac/ilp32\libg_nano.a(lib_a-mlock.o)
                              c:/mounriver/mounriver_studio/toolchain/risc-v embedded gcc/bin/../lib/gcc/riscv-none-embed/8.2.0/../../../../riscv-none-embed/lib/rv32imac/ilp32\libg_nano.a(lib_a-nano-freer.o) (__malloc_lock)
c:/mounriver/mounriver_studio/toolchain/risc-v embedded gcc/bin/../lib/gcc/riscv-none-embed/8.2.0/../../../../riscv-none-embed/lib/rv32imac/ilp32\libg_nano.a(lib_a-nano-reallocr.o)
                              c:/mounriver/mounriver_studio/toolchain/risc-v embedded gcc/bin/../lib/gcc/riscv-none-embed/8.2.0/../../../../riscv-none-embed/lib/rv32imac/ilp32\libg_nano.a(lib_a-nano-svfprintf.o) (_realloc_r)
c:/mounriver/mounriver_studio/toolchain/risc-v embedded gcc/bin/../lib/gcc/riscv-none-embed/8.2.0/../../../../riscv-none-embed/lib/rv32imac/ilp32\libg_nano.a(lib_a-readr.o)
                              c:/mounriver/mounriver_studio/toolchain/risc-v embedded gcc/bin/../lib/gcc/riscv-none-embed/8.2.0/../../../../riscv-none-embed/lib/rv32imac/ilp32\libg_nano.a(lib_a-stdio.o) (_read_r)
c:/mounriver/mounriver_studio/toolchain/risc-v embedded gcc/bin/../lib/gcc/riscv-none-embed/8.2.0/../../../../riscv-none-embed/lib/rv32imac/ilp32\libg_nano.a(lib_a-reent.o)
                              c:/mounriver/mounriver_studio/toolchain/risc-v embedded gcc/bin/../lib/gcc/riscv-none-embed/8.2.0/../../../../riscv-none-embed/lib/rv32imac/ilp32\libg_nano.a(lib_a-sbrkr.o) (errno)
c:/mounriver/mounriver_studio/toolchain/risc-v embedded gcc/bin/../lib/gcc/riscv-none-embed/8.2.0/../../../../riscv-none-embed/lib/rv32imac/ilp32\libg_nano.a(lib_a-nano-msizer.o)
                              c:/mounriver/mounriver_studio/toolchain/risc-v embedded gcc/bin/../lib/gcc/riscv-none-embed/8.2.0/../../../../riscv-none-embed/lib/rv32imac/ilp32\libg_nano.a(lib_a-nano-reallocr.o) (_malloc_usable_size_r)
c:/mounriver/mounriver_studio/toolchain/risc-v embedded gcc/bin/../lib/gcc/riscv-none-embed/8.2.0/../../../../riscv-none-embed/lib/rv32imac/ilp32\libnosys.a(close.o)
                              c:/mounriver/mounriver_studio/toolchain/risc-v embedded gcc/bin/../lib/gcc/riscv-none-embed/8.2.0/../../../../riscv-none-embed/lib/rv32imac/ilp32\libg_nano.a(lib_a-closer.o) (_close)
c:/mounriver/mounriver_studio/toolchain/risc-v embedded gcc/bin/../lib/gcc/riscv-none-embed/8.2.0/../../../../riscv-none-embed/lib/rv32imac/ilp32\libnosys.a(fstat.o)
                              c:/mounriver/mounriver_studio/toolchain/risc-v embedded gcc/bin/../lib/gcc/riscv-none-embed/8.2.0/../../../../riscv-none-embed/lib/rv32imac/ilp32\libg_nano.a(lib_a-fstatr.o) (_fstat)
c:/mounriver/mounriver_studio/toolchain/risc-v embedded gcc/bin/../lib/gcc/riscv-none-embed/8.2.0/../../../../riscv-none-embed/lib/rv32imac/ilp32\libnosys.a(isatty.o)
                              c:/mounriver/mounriver_studio/toolchain/risc-v embedded gcc/bin/../lib/gcc/riscv-none-embed/8.2.0/../../../../riscv-none-embed/lib/rv32imac/ilp32\libg_nano.a(lib_a-isattyr.o) (_isatty)
c:/mounriver/mounriver_studio/toolchain/risc-v embedded gcc/bin/../lib/gcc/riscv-none-embed/8.2.0/../../../../riscv-none-embed/lib/rv32imac/ilp32\libnosys.a(lseek.o)
                              c:/mounriver/mounriver_studio/toolchain/risc-v embedded gcc/bin/../lib/gcc/riscv-none-embed/8.2.0/../../../../riscv-none-embed/lib/rv32imac/ilp32\libg_nano.a(lib_a-lseekr.o) (_lseek)
c:/mounriver/mounriver_studio/toolchain/risc-v embedded gcc/bin/../lib/gcc/riscv-none-embed/8.2.0/../../../../riscv-none-embed/lib/rv32imac/ilp32\libnosys.a(read.o)
                              c:/mounriver/mounriver_studio/toolchain/risc-v embedded gcc/bin/../lib/gcc/riscv-none-embed/8.2.0/../../../../riscv-none-embed/lib/rv32imac/ilp32\libg_nano.a(lib_a-readr.o) (_read)
c:/mounriver/mounriver_studio/toolchain/risc-v embedded gcc/bin/../lib/gcc/riscv-none-embed/8.2.0/../../../../riscv-none-embed/lib/rv32imac/ilp32\libnosys.a(sbrk.o)
                              c:/mounriver/mounriver_studio/toolchain/risc-v embedded gcc/bin/../lib/gcc/riscv-none-embed/8.2.0/../../../../riscv-none-embed/lib/rv32imac/ilp32\libg_nano.a(lib_a-sbrkr.o) (_sbrk)

Allocating common symbols
Common symbol       size              file

errno               0x4               c:/mounriver/mounriver_studio/toolchain/risc-v embedded gcc/bin/../lib/gcc/riscv-none-embed/8.2.0/../../../../riscv-none-embed/lib/rv32imac/ilp32\libg_nano.a(lib_a-reent.o)

Discarded input sections

 .text          0x0000000000000000        0x0 ./StdPeriphDriver/CH57x_adc.o
 .data          0x0000000000000000        0x0 ./StdPeriphDriver/CH57x_adc.o
 .bss           0x0000000000000000        0x0 ./StdPeriphDriver/CH57x_adc.o
 .text.ADC_DataCalib_Rough
                0x0000000000000000       0x84 ./StdPeriphDriver/CH57x_adc.o
 .text.ADC_ExtDiffChSampInit
                0x0000000000000000       0x24 ./StdPeriphDriver/CH57x_adc.o
 .text.ADC_InterBATSampInit
                0x0000000000000000       0x1e ./StdPeriphDriver/CH57x_adc.o
 .text.TouchKey_ChSampInit
                0x0000000000000000       0x1a ./StdPeriphDriver/CH57x_adc.o
 .text.TouchKey_ExcutSingleConver
                0x0000000000000000       0x2e ./StdPeriphDriver/CH57x_adc.o
 .text.ADC_AutoConverCycle
                0x0000000000000000        0xa ./StdPeriphDriver/CH57x_adc.o
 .text.ADC_DMACfg
                0x0000000000000000       0x42 ./StdPeriphDriver/CH57x_adc.o
 .text.adc_to_temperature_celsius
                0x0000000000000000       0x24 ./StdPeriphDriver/CH57x_adc.o
 .text          0x0000000000000000        0x0 ./StdPeriphDriver/CH57x_clk.o
 .data          0x0000000000000000        0x0 ./StdPeriphDriver/CH57x_clk.o
 .bss           0x0000000000000000        0x0 ./StdPeriphDriver/CH57x_clk.o
 .text.LClk32K_Select
                0x0000000000000000       0x34 ./StdPeriphDriver/CH57x_clk.o
 .text.HSECFG_Current
                0x0000000000000000       0x2a ./StdPeriphDriver/CH57x_clk.o
 .text.HSECFG_Capacitance
                0x0000000000000000       0x2e ./StdPeriphDriver/CH57x_clk.o
 .text.LSECFG_Current
                0x0000000000000000       0x2a ./StdPeriphDriver/CH57x_clk.o
 .text.LSECFG_Capacitance
                0x0000000000000000       0x2c ./StdPeriphDriver/CH57x_clk.o
 .text.LSI_SetTune_FLASH
                0x0000000000000000       0x26 ./StdPeriphDriver/CH57x_clk.o
 .text.LSI_SetTune_RAM
                0x0000000000000000       0x26 ./StdPeriphDriver/CH57x_clk.o
 .text.RTC_GetTime
                0x0000000000000000      0x15c ./StdPeriphDriver/CH57x_clk.o
 .text.RTC_SetCycle32k
                0x0000000000000000       0x5a ./StdPeriphDriver/CH57x_clk.o
 .text.RTC_GetCycle32k
                0x0000000000000000       0x18 ./StdPeriphDriver/CH57x_clk.o
 .text.RTC_TMRFunCfg
                0x0000000000000000       0x40 ./StdPeriphDriver/CH57x_clk.o
 .text.RTC_TRIGFunCfg
                0x0000000000000000       0x48 ./StdPeriphDriver/CH57x_clk.o
 .text.RTC_ModeFunDisable
                0x0000000000000000       0x38 ./StdPeriphDriver/CH57x_clk.o
 .text.RTC_GetITFlag
                0x0000000000000000       0x1a ./StdPeriphDriver/CH57x_clk.o
 .text.RTC_ClearITFlag
                0x0000000000000000       0x20 ./StdPeriphDriver/CH57x_clk.o
 .text          0x0000000000000000        0x0 ./StdPeriphDriver/CH57x_flash.o
 .data          0x0000000000000000        0x0 ./StdPeriphDriver/CH57x_flash.o
 .bss           0x0000000000000000        0x0 ./StdPeriphDriver/CH57x_flash.o
 .text.FLASH_ROM_READ
                0x0000000000000000       0x1c ./StdPeriphDriver/CH57x_flash.o
 .debug_info    0x0000000000000000      0xc2a ./StdPeriphDriver/CH57x_flash.o
 .debug_abbrev  0x0000000000000000      0x21a ./StdPeriphDriver/CH57x_flash.o
 .debug_loc     0x0000000000000000       0xff ./StdPeriphDriver/CH57x_flash.o
 .debug_aranges
                0x0000000000000000       0x20 ./StdPeriphDriver/CH57x_flash.o
 .debug_ranges  0x0000000000000000       0x10 ./StdPeriphDriver/CH57x_flash.o
 .debug_line    0x0000000000000000      0x2b6 ./StdPeriphDriver/CH57x_flash.o
 .debug_str     0x0000000000000000      0x7b6 ./StdPeriphDriver/CH57x_flash.o
 .comment       0x0000000000000000       0x34 ./StdPeriphDriver/CH57x_flash.o
 .debug_frame   0x0000000000000000       0x20 ./StdPeriphDriver/CH57x_flash.o
 .text          0x0000000000000000        0x0 ./StdPeriphDriver/CH57x_gpio.o
 .data          0x0000000000000000        0x0 ./StdPeriphDriver/CH57x_gpio.o
 .bss           0x0000000000000000        0x0 ./StdPeriphDriver/CH57x_gpio.o
 .text.GPIOA_ITModeCfg
                0x0000000000000000       0x82 ./StdPeriphDriver/CH57x_gpio.o
 .text.GPIOB_ITModeCfg
                0x0000000000000000       0x8a ./StdPeriphDriver/CH57x_gpio.o
 .text.GPIOAGPPCfg
                0x0000000000000000       0x1a ./StdPeriphDriver/CH57x_gpio.o
 .text          0x0000000000000000        0x0 ./StdPeriphDriver/CH57x_pwr.o
 .data          0x0000000000000000        0x0 ./StdPeriphDriver/CH57x_pwr.o
 .bss           0x0000000000000000        0x0 ./StdPeriphDriver/CH57x_pwr.o
 .text.PWR_DCDCCfg
                0x0000000000000000       0x7c ./StdPeriphDriver/CH57x_pwr.o
 .text.PWR_UnitModCfg
                0x0000000000000000       0x5c ./StdPeriphDriver/CH57x_pwr.o
 .text.PWR_PeriphClkCfg
                0x0000000000000000       0x2e ./StdPeriphDriver/CH57x_pwr.o
 .text.PWR_PeriphWakeUpCfg
                0x0000000000000000       0x78 ./StdPeriphDriver/CH57x_pwr.o
 .text.PowerMonitor
                0x0000000000000000       0x94 ./StdPeriphDriver/CH57x_pwr.o
 .highcode      0x0000000000000000      0x2dc ./StdPeriphDriver/CH57x_pwr.o
 .sdata2.CSWTCH.10
                0x0000000000000000        0x4 ./StdPeriphDriver/CH57x_pwr.o
 .debug_info    0x0000000000000000     0x1532 ./StdPeriphDriver/CH57x_pwr.o
 .debug_abbrev  0x0000000000000000      0x369 ./StdPeriphDriver/CH57x_pwr.o
 .debug_loc     0x0000000000000000      0x2f7 ./StdPeriphDriver/CH57x_pwr.o
 .debug_aranges
                0x0000000000000000       0x60 ./StdPeriphDriver/CH57x_pwr.o
 .debug_ranges  0x0000000000000000       0xa8 ./StdPeriphDriver/CH57x_pwr.o
 .debug_line    0x0000000000000000     0x117b ./StdPeriphDriver/CH57x_pwr.o
 .debug_str     0x0000000000000000      0xbc6 ./StdPeriphDriver/CH57x_pwr.o
 .comment       0x0000000000000000       0x34 ./StdPeriphDriver/CH57x_pwr.o
 .debug_frame   0x0000000000000000      0x110 ./StdPeriphDriver/CH57x_pwr.o
 .text          0x0000000000000000        0x0 ./StdPeriphDriver/CH57x_sys.o
 .data          0x0000000000000000        0x0 ./StdPeriphDriver/CH57x_sys.o
 .bss           0x0000000000000000        0x0 ./StdPeriphDriver/CH57x_sys.o
 .text.SYS_GetInfoSta
                0x0000000000000000       0x24 ./StdPeriphDriver/CH57x_sys.o
 .text.SYS_DisableAllIrq
                0x0000000000000000       0x1c ./StdPeriphDriver/CH57x_sys.o
 .text.SYS_RecoverIrq
                0x0000000000000000       0x14 ./StdPeriphDriver/CH57x_sys.o
 .text.WWDG_ITCfg
                0x0000000000000000       0x34 ./StdPeriphDriver/CH57x_sys.o
 .text.WWDG_ResetCfg
                0x0000000000000000       0x34 ./StdPeriphDriver/CH57x_sys.o
 .text.WWDG_ClearFlag
                0x0000000000000000       0x26 ./StdPeriphDriver/CH57x_sys.o
 .text          0x0000000000000000        0x0 ./StdPeriphDriver/CH57x_timer0.o
 .data          0x0000000000000000        0x0 ./StdPeriphDriver/CH57x_timer0.o
 .bss           0x0000000000000000        0x0 ./StdPeriphDriver/CH57x_timer0.o
 .text.TMR0_TimerInit
                0x0000000000000000       0x14 ./StdPeriphDriver/CH57x_timer0.o
 .text.TMR0_EXTSingleCounterInit
                0x0000000000000000       0x1a ./StdPeriphDriver/CH57x_timer0.o
 .text.TMR0_PWMInit
                0x0000000000000000       0x18 ./StdPeriphDriver/CH57x_timer0.o
 .text.TMR0_CapInit
                0x0000000000000000       0x1a ./StdPeriphDriver/CH57x_timer0.o
 .debug_info    0x0000000000000000      0xd00 ./StdPeriphDriver/CH57x_timer0.o
 .debug_abbrev  0x0000000000000000      0x235 ./StdPeriphDriver/CH57x_timer0.o
 .debug_loc     0x0000000000000000       0x84 ./StdPeriphDriver/CH57x_timer0.o
 .debug_aranges
                0x0000000000000000       0x38 ./StdPeriphDriver/CH57x_timer0.o
 .debug_ranges  0x0000000000000000       0x28 ./StdPeriphDriver/CH57x_timer0.o
 .debug_line    0x0000000000000000      0x3af ./StdPeriphDriver/CH57x_timer0.o
 .debug_str     0x0000000000000000      0x894 ./StdPeriphDriver/CH57x_timer0.o
 .comment       0x0000000000000000       0x34 ./StdPeriphDriver/CH57x_timer0.o
 .debug_frame   0x0000000000000000       0x50 ./StdPeriphDriver/CH57x_timer0.o
 .text          0x0000000000000000        0x0 ./StdPeriphDriver/CH57x_timer1.o
 .data          0x0000000000000000        0x0 ./StdPeriphDriver/CH57x_timer1.o
 .bss           0x0000000000000000        0x0 ./StdPeriphDriver/CH57x_timer1.o
 .text.TMR1_TimerInit
                0x0000000000000000       0x16 ./StdPeriphDriver/CH57x_timer1.o
 .text.TMR1_EXTSingleCounterInit
                0x0000000000000000       0x1a ./StdPeriphDriver/CH57x_timer1.o
 .text.TMR1_CapInit
                0x0000000000000000       0x1a ./StdPeriphDriver/CH57x_timer1.o
 .text.TMR1_DMACfg
                0x0000000000000000       0x20 ./StdPeriphDriver/CH57x_timer1.o
 .text          0x0000000000000000        0x0 ./StdPeriphDriver/CH57x_timer2.o
 .data          0x0000000000000000        0x0 ./StdPeriphDriver/CH57x_timer2.o
 .bss           0x0000000000000000        0x0 ./StdPeriphDriver/CH57x_timer2.o
 .text.TMR2_TimerInit
                0x0000000000000000       0x16 ./StdPeriphDriver/CH57x_timer2.o
 .text.TMR2_PWMInit
                0x0000000000000000       0x18 ./StdPeriphDriver/CH57x_timer2.o
 .text.TMR2_CapInit
                0x0000000000000000       0x1a ./StdPeriphDriver/CH57x_timer2.o
 .text.TMR2_DMACfg
                0x0000000000000000       0x20 ./StdPeriphDriver/CH57x_timer2.o
 .text          0x0000000000000000        0x0 ./StdPeriphDriver/CH57x_uart1.o
 .data          0x0000000000000000        0x0 ./StdPeriphDriver/CH57x_uart1.o
 .bss           0x0000000000000000        0x0 ./StdPeriphDriver/CH57x_uart1.o
 .text.UART1_ByteTrigCfg
                0x0000000000000000       0x1a ./StdPeriphDriver/CH57x_uart1.o
 .text.UART1_INTCfg
                0x0000000000000000       0x2a ./StdPeriphDriver/CH57x_uart1.o
 .text.UART1_Reset
                0x0000000000000000        0xe ./StdPeriphDriver/CH57x_uart1.o
 .text.UART1_SendString
                0x0000000000000000       0x28 ./StdPeriphDriver/CH57x_uart1.o
 .text.UART1_RecvString
                0x0000000000000000       0x2a ./StdPeriphDriver/CH57x_uart1.o
 .text          0x0000000000000000        0x0 ./Startup/startup_CH573.o
 .data          0x0000000000000000        0x0 ./Startup/startup_CH573.o
 .bss           0x0000000000000000        0x0 ./Startup/startup_CH573.o
 .text          0x0000000000000000        0x0 ./RVMSIS/core_riscv.o
 .data          0x0000000000000000        0x0 ./RVMSIS/core_riscv.o
 .bss           0x0000000000000000        0x0 ./RVMSIS/core_riscv.o
 .text.__get_MSTATUS
                0x0000000000000000        0x6 ./RVMSIS/core_riscv.o
 .text.__set_MSTATUS
                0x0000000000000000        0x6 ./RVMSIS/core_riscv.o
 .text.__get_MISA
                0x0000000000000000        0x6 ./RVMSIS/core_riscv.o
 .text.__set_MISA
                0x0000000000000000        0x6 ./RVMSIS/core_riscv.o
 .text.__get_MTVEC
                0x0000000000000000        0x6 ./RVMSIS/core_riscv.o
 .text.__set_MTVEC
                0x0000000000000000        0x6 ./RVMSIS/core_riscv.o
 .text.__get_MSCRATCH
                0x0000000000000000        0x6 ./RVMSIS/core_riscv.o
 .text.__set_MSCRATCH
                0x0000000000000000        0x6 ./RVMSIS/core_riscv.o
 .text.__get_MEPC
                0x0000000000000000        0x6 ./RVMSIS/core_riscv.o
 .text.__set_MEPC
                0x0000000000000000        0x6 ./RVMSIS/core_riscv.o
 .text.__get_MCAUSE
                0x0000000000000000        0x6 ./RVMSIS/core_riscv.o
 .text.__set_MCAUSE
                0x0000000000000000        0x6 ./RVMSIS/core_riscv.o
 .text.__get_MTVAL
                0x0000000000000000        0x6 ./RVMSIS/core_riscv.o
 .text.__set_MTVAL
                0x0000000000000000        0x6 ./RVMSIS/core_riscv.o
 .text.__get_MVENDORID
                0x0000000000000000        0x6 ./RVMSIS/core_riscv.o
 .text.__get_MARCHID
                0x0000000000000000        0x6 ./RVMSIS/core_riscv.o
 .text.__get_MIMPID
                0x0000000000000000        0x6 ./RVMSIS/core_riscv.o
 .text.__get_MHARTID
                0x0000000000000000        0x6 ./RVMSIS/core_riscv.o
 .text.__get_SP
                0x0000000000000000        0x4 ./RVMSIS/core_riscv.o
 .debug_info    0x0000000000000000      0x375 ./RVMSIS/core_riscv.o
 .debug_abbrev  0x0000000000000000       0xe0 ./RVMSIS/core_riscv.o
 .debug_aranges
                0x0000000000000000       0xb0 ./RVMSIS/core_riscv.o
 .debug_ranges  0x0000000000000000       0xa0 ./RVMSIS/core_riscv.o
 .debug_line    0x0000000000000000      0x468 ./RVMSIS/core_riscv.o
 .debug_str     0x0000000000000000      0x2c1 ./RVMSIS/core_riscv.o
 .comment       0x0000000000000000       0x34 ./RVMSIS/core_riscv.o
 .debug_frame   0x0000000000000000      0x140 ./RVMSIS/core_riscv.o
 .text          0x0000000000000000        0x0 ./Profile/debug_service.o
 .data          0x0000000000000000        0x0 ./Profile/debug_service.o
 .bss           0x0000000000000000        0x0 ./Profile/debug_service.o
 .text          0x0000000000000000        0x0 ./Profile/devinfoservice.o
 .data          0x0000000000000000        0x0 ./Profile/devinfoservice.o
 .bss           0x0000000000000000        0x0 ./Profile/devinfoservice.o
 .text.DevInfo_SetParameter
                0x0000000000000000       0x28 ./Profile/devinfoservice.o
 .text.DevInfo_GetParameter
                0x0000000000000000       0x9e ./Profile/devinfoservice.o
 .rodata.DevInfo_GetParameter
                0x0000000000000000       0x24 ./Profile/devinfoservice.o
 .text          0x0000000000000000        0x0 ./HAL/MCU.o
 .data          0x0000000000000000        0x0 ./HAL/MCU.o
 .bss           0x0000000000000000        0x0 ./HAL/MCU.o
 .text          0x0000000000000000        0x0 ./HAL/RTC.o
 .data          0x0000000000000000        0x0 ./HAL/RTC.o
 .bss           0x0000000000000000        0x0 ./HAL/RTC.o
 .text.RTC_SetTignTime
                0x0000000000000000       0x24 ./HAL/RTC.o
 .text          0x0000000000000000        0x0 ./HAL/SLEEP.o
 .data          0x0000000000000000        0x0 ./HAL/SLEEP.o
 .bss           0x0000000000000000        0x0 ./HAL/SLEEP.o
 .text.CH57X_LowPower
                0x0000000000000000        0x4 ./HAL/SLEEP.o
 .text.HAL_SleepInit
                0x0000000000000000        0x2 ./HAL/SLEEP.o
 .debug_info    0x0000000000000000      0xd6d ./HAL/SLEEP.o
 .debug_abbrev  0x0000000000000000      0x211 ./HAL/SLEEP.o
 .debug_loc     0x0000000000000000       0x21 ./HAL/SLEEP.o
 .debug_aranges
                0x0000000000000000       0x28 ./HAL/SLEEP.o
 .debug_ranges  0x0000000000000000       0x18 ./HAL/SLEEP.o
 .debug_line    0x0000000000000000      0x2f1 ./HAL/SLEEP.o
 .debug_str     0x0000000000000000      0x939 ./HAL/SLEEP.o
 .comment       0x0000000000000000       0x34 ./HAL/SLEEP.o
 .debug_frame   0x0000000000000000       0x30 ./HAL/SLEEP.o
 .text          0x0000000000000000        0x0 ./APP/Fan.o
 .data          0x0000000000000000        0x0 ./APP/Fan.o
 .bss           0x0000000000000000        0x0 ./APP/Fan.o
 .text.Get_Fan_Duty
                0x0000000000000000        0xa ./APP/Fan.o
 .text          0x0000000000000000        0x0 ./APP/User_config.o
 .data          0x0000000000000000        0x0 ./APP/User_config.o
 .bss           0x0000000000000000        0x0 ./APP/User_config.o
 .text          0x0000000000000000        0x0 ./APP/peripheral.o
 .data          0x0000000000000000        0x0 ./APP/peripheral.o
 .bss           0x0000000000000000        0x0 ./APP/peripheral.o
 .text          0x0000000000000000        0x0 ./APP/peripheral_main.o
 .data          0x0000000000000000        0x0 ./APP/peripheral_main.o
 .bss           0x0000000000000000        0x0 ./APP/peripheral_main.o
 .text          0x0000000000000000        0x0 E:\PD_Fan\PD_Fan\Software\EXAM\SRC\StdPeriphDriver\libISP573.a(ISP573.o)
 .data          0x0000000000000000        0x0 E:\PD_Fan\PD_Fan\Software\EXAM\SRC\StdPeriphDriver\libISP573.a(ISP573.o)
 .bss           0x0000000000000000        0x0 E:\PD_Fan\PD_Fan\Software\EXAM\SRC\StdPeriphDriver\libISP573.a(ISP573.o)
 .text          0x0000000000000000        0x0 E:\PD_Fan\PD_Fan\Software\EXAM\BLE\LIB\libCH57xBLE.a(message.o)
 .data          0x0000000000000000        0x0 E:\PD_Fan\PD_Fan\Software\EXAM\BLE\LIB\libCH57xBLE.a(message.o)
 .bss           0x0000000000000000        0x0 E:\PD_Fan\PD_Fan\Software\EXAM\BLE\LIB\libCH57xBLE.a(message.o)
 .text.tmos_msg_push
                0x0000000000000000        0xa E:\PD_Fan\PD_Fan\Software\EXAM\BLE\LIB\libCH57xBLE.a(message.o)
 .text.tmos_msg_push_front
                0x0000000000000000       0x70 E:\PD_Fan\PD_Fan\Software\EXAM\BLE\LIB\libCH57xBLE.a(message.o)
 .text          0x0000000000000000        0x0 E:\PD_Fan\PD_Fan\Software\EXAM\BLE\LIB\libCH57xBLE.a(tmos.o)
 .data          0x0000000000000000        0x0 E:\PD_Fan\PD_Fan\Software\EXAM\BLE\LIB\libCH57xBLE.a(tmos.o)
 .bss           0x0000000000000000        0x0 E:\PD_Fan\PD_Fan\Software\EXAM\BLE\LIB\libCH57xBLE.a(tmos.o)
 .text.TMOS_GetSystemClock
                0x0000000000000000        0xc E:\PD_Fan\PD_Fan\Software\EXAM\BLE\LIB\libCH57xBLE.a(tmos.o)
 .text.tmos_get_event
                0x0000000000000000       0x14 E:\PD_Fan\PD_Fan\Software\EXAM\BLE\LIB\libCH57xBLE.a(tmos.o)
 .text.TMOS_ProcessGet
                0x0000000000000000       0x1a E:\PD_Fan\PD_Fan\Software\EXAM\BLE\LIB\libCH57xBLE.a(tmos.o)
 .text.TMOS_SystemProcessRegister
                0x0000000000000000        0xa E:\PD_Fan\PD_Fan\Software\EXAM\BLE\LIB\libCH57xBLE.a(tmos.o)
 .text          0x0000000000000000        0x0 E:\PD_Fan\PD_Fan\Software\EXAM\BLE\LIB\libCH57xBLE.a(tmos_hw.o)
 .data          0x0000000000000000        0x0 E:\PD_Fan\PD_Fan\Software\EXAM\BLE\LIB\libCH57xBLE.a(tmos_hw.o)
 .bss           0x0000000000000000        0x0 E:\PD_Fan\PD_Fan\Software\EXAM\BLE\LIB\libCH57xBLE.a(tmos_hw.o)
 .text          0x0000000000000000        0x0 E:\PD_Fan\PD_Fan\Software\EXAM\BLE\LIB\libCH57xBLE.a(tmos_snv.o)
 .data          0x0000000000000000        0x0 E:\PD_Fan\PD_Fan\Software\EXAM\BLE\LIB\libCH57xBLE.a(tmos_snv.o)
 .bss           0x0000000000000000        0x0 E:\PD_Fan\PD_Fan\Software\EXAM\BLE\LIB\libCH57xBLE.a(tmos_snv.o)
 .text          0x0000000000000000        0x0 E:\PD_Fan\PD_Fan\Software\EXAM\BLE\LIB\libCH57xBLE.a(att.o)
 .data          0x0000000000000000        0x0 E:\PD_Fan\PD_Fan\Software\EXAM\BLE\LIB\libCH57xBLE.a(att.o)
 .bss           0x0000000000000000        0x0 E:\PD_Fan\PD_Fan\Software\EXAM\BLE\LIB\libCH57xBLE.a(att.o)
 .text.ATT_ConvertUUIDto16
                0x0000000000000000       0x5c E:\PD_Fan\PD_Fan\Software\EXAM\BLE\LIB\libCH57xBLE.a(att.o)
 .text.ATT_RegisterClient
                0x0000000000000000        0xa E:\PD_Fan\PD_Fan\Software\EXAM\BLE\LIB\libCH57xBLE.a(att.o)
 .text.ATT_ParseErrorRsp
                0x0000000000000000       0x2e E:\PD_Fan\PD_Fan\Software\EXAM\BLE\LIB\libCH57xBLE.a(att.o)
 .text.ATT_HandleValueCfm
                0x0000000000000000       0x36 E:\PD_Fan\PD_Fan\Software\EXAM\BLE\LIB\libCH57xBLE.a(att.o)
 .text          0x0000000000000000        0x0 E:\PD_Fan\PD_Fan\Software\EXAM\BLE\LIB\libCH57xBLE.a(att_client.o)
 .data          0x0000000000000000        0x0 E:\PD_Fan\PD_Fan\Software\EXAM\BLE\LIB\libCH57xBLE.a(att_client.o)
 .bss           0x0000000000000000        0x0 E:\PD_Fan\PD_Fan\Software\EXAM\BLE\LIB\libCH57xBLE.a(att_client.o)
 .text.ATT_BuildExchangeMTUReq
                0x0000000000000000       0x16 E:\PD_Fan\PD_Fan\Software\EXAM\BLE\LIB\libCH57xBLE.a(att_client.o)
 .text.ATT_BuildFindInfoReq
                0x0000000000000000       0x28 E:\PD_Fan\PD_Fan\Software\EXAM\BLE\LIB\libCH57xBLE.a(att_client.o)
 .text.ATT_BuildFindByTypeValueReq
                0x0000000000000000       0x40 E:\PD_Fan\PD_Fan\Software\EXAM\BLE\LIB\libCH57xBLE.a(att_client.o)
 .text.ATT_BuildReadReq
                0x0000000000000000       0x16 E:\PD_Fan\PD_Fan\Software\EXAM\BLE\LIB\libCH57xBLE.a(att_client.o)
 .text.ATT_BuildReadBlobReq
                0x0000000000000000       0x28 E:\PD_Fan\PD_Fan\Software\EXAM\BLE\LIB\libCH57xBLE.a(att_client.o)
 .text.ATT_BuildReadMultiReq
                0x0000000000000000        0xc E:\PD_Fan\PD_Fan\Software\EXAM\BLE\LIB\libCH57xBLE.a(att_client.o)
 .text.ATT_BuildWriteReq
                0x0000000000000000       0x1e E:\PD_Fan\PD_Fan\Software\EXAM\BLE\LIB\libCH57xBLE.a(att_client.o)
 .text.ATT_BuildPrepareWriteReq
                0x0000000000000000       0x30 E:\PD_Fan\PD_Fan\Software\EXAM\BLE\LIB\libCH57xBLE.a(att_client.o)
 .text.ATT_BuildExecuteWriteReq
                0x0000000000000000        0xc E:\PD_Fan\PD_Fan\Software\EXAM\BLE\LIB\libCH57xBLE.a(att_client.o)
 .text.ATT_BuildReadByTypeReq
                0x0000000000000000       0x4a E:\PD_Fan\PD_Fan\Software\EXAM\BLE\LIB\libCH57xBLE.a(att_client.o)
 .text.ATT_ParseExchangeMTURsp
                0x0000000000000000       0x1e E:\PD_Fan\PD_Fan\Software\EXAM\BLE\LIB\libCH57xBLE.a(att_client.o)
 .text.ATT_ExchangeMTUReq
                0x0000000000000000       0x50 E:\PD_Fan\PD_Fan\Software\EXAM\BLE\LIB\libCH57xBLE.a(att_client.o)
 .text.ATT_ParseFindInfoRsp
                0x0000000000000000       0x48 E:\PD_Fan\PD_Fan\Software\EXAM\BLE\LIB\libCH57xBLE.a(att_client.o)
 .text.ATT_FindInfoReq
                0x0000000000000000       0x16 E:\PD_Fan\PD_Fan\Software\EXAM\BLE\LIB\libCH57xBLE.a(att_client.o)
 .text.ATT_ParseFindByTypeValueRsp
                0x0000000000000000       0x1c E:\PD_Fan\PD_Fan\Software\EXAM\BLE\LIB\libCH57xBLE.a(att_client.o)
 .text.ATT_FindByTypeValueReq
                0x0000000000000000       0x48 E:\PD_Fan\PD_Fan\Software\EXAM\BLE\LIB\libCH57xBLE.a(att_client.o)
 .text.ATT_ParseReadByTypeRsp
                0x0000000000000000       0x32 E:\PD_Fan\PD_Fan\Software\EXAM\BLE\LIB\libCH57xBLE.a(att_client.o)
 .text.ATT_ReadByTypeReq
                0x0000000000000000       0x2a E:\PD_Fan\PD_Fan\Software\EXAM\BLE\LIB\libCH57xBLE.a(att_client.o)
 .text.ATT_ParseReadRsp
                0x0000000000000000        0xe E:\PD_Fan\PD_Fan\Software\EXAM\BLE\LIB\libCH57xBLE.a(att_client.o)
 .text.ATT_ReadReq
                0x0000000000000000       0x16 E:\PD_Fan\PD_Fan\Software\EXAM\BLE\LIB\libCH57xBLE.a(att_client.o)
 .text.ATT_ParseReadBlobRsp
                0x0000000000000000        0xe E:\PD_Fan\PD_Fan\Software\EXAM\BLE\LIB\libCH57xBLE.a(att_client.o)
 .text.ATT_ReadBlobReq
                0x0000000000000000       0x16 E:\PD_Fan\PD_Fan\Software\EXAM\BLE\LIB\libCH57xBLE.a(att_client.o)
 .text.ATT_ParseReadMultiRsp
                0x0000000000000000        0xe E:\PD_Fan\PD_Fan\Software\EXAM\BLE\LIB\libCH57xBLE.a(att_client.o)
 .text.ATT_ReadMultiReq
                0x0000000000000000       0x4e E:\PD_Fan\PD_Fan\Software\EXAM\BLE\LIB\libCH57xBLE.a(att_client.o)
 .text.ATT_ParseReadByGrpTypeRsp
                0x0000000000000000       0x34 E:\PD_Fan\PD_Fan\Software\EXAM\BLE\LIB\libCH57xBLE.a(att_client.o)
 .text.ATT_ReadByGrpTypeReq
                0x0000000000000000       0x2a E:\PD_Fan\PD_Fan\Software\EXAM\BLE\LIB\libCH57xBLE.a(att_client.o)
 .text.ATT_ParseWriteRsp
                0x0000000000000000        0xa E:\PD_Fan\PD_Fan\Software\EXAM\BLE\LIB\libCH57xBLE.a(att_client.o)
 .text.ATT_WriteReq
                0x0000000000000000       0x78 E:\PD_Fan\PD_Fan\Software\EXAM\BLE\LIB\libCH57xBLE.a(att_client.o)
 .text.ATT_ParsePrepareWriteRsp
                0x0000000000000000       0x44 E:\PD_Fan\PD_Fan\Software\EXAM\BLE\LIB\libCH57xBLE.a(att_client.o)
 .text.ATT_PrepareWriteReq
                0x0000000000000000       0x38 E:\PD_Fan\PD_Fan\Software\EXAM\BLE\LIB\libCH57xBLE.a(att_client.o)
 .text.ATT_ParseExecuteWriteRsp
                0x0000000000000000        0xa E:\PD_Fan\PD_Fan\Software\EXAM\BLE\LIB\libCH57xBLE.a(att_client.o)
 .text.ATT_ExecuteWriteReq
                0x0000000000000000       0x16 E:\PD_Fan\PD_Fan\Software\EXAM\BLE\LIB\libCH57xBLE.a(att_client.o)
 .text.ATT_ParseHandleValueInd
                0x0000000000000000       0x34 E:\PD_Fan\PD_Fan\Software\EXAM\BLE\LIB\libCH57xBLE.a(att_client.o)
 .text.ATT_HandleValueConfirmation
                0x0000000000000000       0x10 E:\PD_Fan\PD_Fan\Software\EXAM\BLE\LIB\libCH57xBLE.a(att_client.o)
 .comment       0x0000000000000000       0x34 E:\PD_Fan\PD_Fan\Software\EXAM\BLE\LIB\libCH57xBLE.a(att_client.o)
 .text          0x0000000000000000        0x0 E:\PD_Fan\PD_Fan\Software\EXAM\BLE\LIB\libCH57xBLE.a(gap.o)
 .data          0x0000000000000000        0x0 E:\PD_Fan\PD_Fan\Software\EXAM\BLE\LIB\libCH57xBLE.a(gap.o)
 .bss           0x0000000000000000        0x0 E:\PD_Fan\PD_Fan\Software\EXAM\BLE\LIB\libCH57xBLE.a(gap.o)
 .text.GAP_UpdateLinkParamReq
                0x0000000000000000       0xc8 E:\PD_Fan\PD_Fan\Software\EXAM\BLE\LIB\libCH57xBLE.a(gap.o)
 .text.GAP_PasskeyUpdate
                0x0000000000000000       0x42 E:\PD_Fan\PD_Fan\Software\EXAM\BLE\LIB\libCH57xBLE.a(gap.o)
 .text          0x0000000000000000        0x0 E:\PD_Fan\PD_Fan\Software\EXAM\BLE\LIB\libCH57xBLE.a(gap_central.o)
 .data          0x0000000000000000        0x0 E:\PD_Fan\PD_Fan\Software\EXAM\BLE\LIB\libCH57xBLE.a(gap_central.o)
 .bss           0x0000000000000000        0x0 E:\PD_Fan\PD_Fan\Software\EXAM\BLE\LIB\libCH57xBLE.a(gap_central.o)
 .text.GAP_DeviceDiscoveryCancel
                0x0000000000000000       0x4c E:\PD_Fan\PD_Fan\Software\EXAM\BLE\LIB\libCH57xBLE.a(gap_central.o)
 .text.GAP_DeviceDiscoveryRequest
                0x0000000000000000       0xb0 E:\PD_Fan\PD_Fan\Software\EXAM\BLE\LIB\libCH57xBLE.a(gap_central.o)
 .text.GAP_EstablishLinkReq
                0x0000000000000000      0x178 E:\PD_Fan\PD_Fan\Software\EXAM\BLE\LIB\libCH57xBLE.a(gap_central.o)
 .text          0x0000000000000000        0x0 E:\PD_Fan\PD_Fan\Software\EXAM\BLE\LIB\libCH57xBLE.a(gap_peripheral.o)
 .data          0x0000000000000000        0x0 E:\PD_Fan\PD_Fan\Software\EXAM\BLE\LIB\libCH57xBLE.a(gap_peripheral.o)
 .bss           0x0000000000000000        0x0 E:\PD_Fan\PD_Fan\Software\EXAM\BLE\LIB\libCH57xBLE.a(gap_peripheral.o)
 .text.GAP_RemoveAdvToken
                0x0000000000000000       0x58 E:\PD_Fan\PD_Fan\Software\EXAM\BLE\LIB\libCH57xBLE.a(gap_peripheral.o)
 .text.GAP_UpdateAdvTokens
                0x0000000000000000      0x186 E:\PD_Fan\PD_Fan\Software\EXAM\BLE\LIB\libCH57xBLE.a(gap_peripheral.o)
 .text.GAP_SetAdvToken
                0x0000000000000000       0xf0 E:\PD_Fan\PD_Fan\Software\EXAM\BLE\LIB\libCH57xBLE.a(gap_peripheral.o)
 .text.GAP_ConfigDeviceAddr
                0x0000000000000000      0x13e E:\PD_Fan\PD_Fan\Software\EXAM\BLE\LIB\libCH57xBLE.a(gap_peripheral.o)
 .text          0x0000000000000000        0x0 E:\PD_Fan\PD_Fan\Software\EXAM\BLE\LIB\libCH57xBLE.a(gapgattserver.o)
 .data          0x0000000000000000        0x0 E:\PD_Fan\PD_Fan\Software\EXAM\BLE\LIB\libCH57xBLE.a(gapgattserver.o)
 .bss           0x0000000000000000        0x0 E:\PD_Fan\PD_Fan\Software\EXAM\BLE\LIB\libCH57xBLE.a(gapgattserver.o)
 .text.GGS_GetParameter
                0x0000000000000000       0x6c E:\PD_Fan\PD_Fan\Software\EXAM\BLE\LIB\libCH57xBLE.a(gapgattserver.o)
 .text.GGS_SetParamValue
                0x0000000000000000        0x2 E:\PD_Fan\PD_Fan\Software\EXAM\BLE\LIB\libCH57xBLE.a(gapgattserver.o)
 .text.GGS_GetParamValue
                0x0000000000000000        0x4 E:\PD_Fan\PD_Fan\Software\EXAM\BLE\LIB\libCH57xBLE.a(gapgattserver.o)
 .text.GGS_DelService
                0x0000000000000000       0x1a E:\PD_Fan\PD_Fan\Software\EXAM\BLE\LIB\libCH57xBLE.a(gapgattserver.o)
 .text.GGS_RegisterAppCBs
                0x0000000000000000        0xa E:\PD_Fan\PD_Fan\Software\EXAM\BLE\LIB\libCH57xBLE.a(gapgattserver.o)
 .text          0x0000000000000000        0x0 E:\PD_Fan\PD_Fan\Software\EXAM\BLE\LIB\libCH57xBLE.a(gatt.o)
 .data          0x0000000000000000        0x0 E:\PD_Fan\PD_Fan\Software\EXAM\BLE\LIB\libCH57xBLE.a(gatt.o)
 .bss           0x0000000000000000        0x0 E:\PD_Fan\PD_Fan\Software\EXAM\BLE\LIB\libCH57xBLE.a(gatt.o)
 .text.gattRead
                0x0000000000000000       0x58 E:\PD_Fan\PD_Fan\Software\EXAM\BLE\LIB\libCH57xBLE.a(gatt.o)
 .text.gattWrite.part.0
                0x0000000000000000       0x58 E:\PD_Fan\PD_Fan\Software\EXAM\BLE\LIB\libCH57xBLE.a(gatt.o)
 .text.gattReadByType
                0x0000000000000000       0x98 E:\PD_Fan\PD_Fan\Software\EXAM\BLE\LIB\libCH57xBLE.a(gatt.o)
 .text.gattReadLong
                0x0000000000000000       0x58 E:\PD_Fan\PD_Fan\Software\EXAM\BLE\LIB\libCH57xBLE.a(gatt.o)
 .text.gattWrite
                0x0000000000000000       0x12 E:\PD_Fan\PD_Fan\Software\EXAM\BLE\LIB\libCH57xBLE.a(gatt.o)
 .text.GATT_DiscAllCharDescs
                0x0000000000000000       0x5a E:\PD_Fan\PD_Fan\Software\EXAM\BLE\LIB\libCH57xBLE.a(gatt.o)
 .text.GATT_DiscAllChars
                0x0000000000000000       0x2e E:\PD_Fan\PD_Fan\Software\EXAM\BLE\LIB\libCH57xBLE.a(gatt.o)
 .text.GATT_DiscAllPrimaryServices
                0x0000000000000000       0x66 E:\PD_Fan\PD_Fan\Software\EXAM\BLE\LIB\libCH57xBLE.a(gatt.o)
 .text.GATT_DiscCharsByUUID
                0x0000000000000000        0xc E:\PD_Fan\PD_Fan\Software\EXAM\BLE\LIB\libCH57xBLE.a(gatt.o)
 .text.GATT_ExchangeMTU
                0x0000000000000000       0x58 E:\PD_Fan\PD_Fan\Software\EXAM\BLE\LIB\libCH57xBLE.a(gatt.o)
 .text.GATT_FindIncludedServices
                0x0000000000000000       0x2e E:\PD_Fan\PD_Fan\Software\EXAM\BLE\LIB\libCH57xBLE.a(gatt.o)
 .text.GATT_ReadCharDesc
                0x0000000000000000        0x8 E:\PD_Fan\PD_Fan\Software\EXAM\BLE\LIB\libCH57xBLE.a(gatt.o)
 .text.GATT_ReadCharValue
                0x0000000000000000        0x8 E:\PD_Fan\PD_Fan\Software\EXAM\BLE\LIB\libCH57xBLE.a(gatt.o)
 .text.GATT_ReadLongCharDesc
                0x0000000000000000        0x8 E:\PD_Fan\PD_Fan\Software\EXAM\BLE\LIB\libCH57xBLE.a(gatt.o)
 .text.GATT_ReadLongCharValue
                0x0000000000000000        0x8 E:\PD_Fan\PD_Fan\Software\EXAM\BLE\LIB\libCH57xBLE.a(gatt.o)
 .text.GATT_ReadMultiCharValues
                0x0000000000000000       0x58 E:\PD_Fan\PD_Fan\Software\EXAM\BLE\LIB\libCH57xBLE.a(gatt.o)
 .text.GATT_ReadUsingCharUUID
                0x0000000000000000        0xc E:\PD_Fan\PD_Fan\Software\EXAM\BLE\LIB\libCH57xBLE.a(gatt.o)
 .text.GATT_SetHostToAppFlowCtrl
                0x0000000000000000        0xe E:\PD_Fan\PD_Fan\Software\EXAM\BLE\LIB\libCH57xBLE.a(gatt.o)
 .text.GATT_SignedWriteNoRsp
                0x0000000000000000       0x3a E:\PD_Fan\PD_Fan\Software\EXAM\BLE\LIB\libCH57xBLE.a(gatt.o)
 .text.GATT_WriteCharValue
                0x0000000000000000       0x16 E:\PD_Fan\PD_Fan\Software\EXAM\BLE\LIB\libCH57xBLE.a(gatt.o)
 .text.GATT_WriteCharDesc
                0x0000000000000000        0x8 E:\PD_Fan\PD_Fan\Software\EXAM\BLE\LIB\libCH57xBLE.a(gatt.o)
 .text.GATT_WriteNoRsp
                0x0000000000000000       0x4c E:\PD_Fan\PD_Fan\Software\EXAM\BLE\LIB\libCH57xBLE.a(gatt.o)
 .text.gattRegisterClient
                0x0000000000000000        0xa E:\PD_Fan\PD_Fan\Software\EXAM\BLE\LIB\libCH57xBLE.a(gatt.o)
 .text.GATT_SendRsp
                0x0000000000000000      0x138 E:\PD_Fan\PD_Fan\Software\EXAM\BLE\LIB\libCH57xBLE.a(gatt.o)
 .rodata.GATT_SendRsp
                0x0000000000000000       0x64 E:\PD_Fan\PD_Fan\Software\EXAM\BLE\LIB\libCH57xBLE.a(gatt.o)
 .text.gattFindByTypeValue
                0x0000000000000000       0x84 E:\PD_Fan\PD_Fan\Software\EXAM\BLE\LIB\libCH57xBLE.a(gatt.o)
 .text.GATT_DiscPrimaryServiceByUUID
                0x0000000000000000       0x86 E:\PD_Fan\PD_Fan\Software\EXAM\BLE\LIB\libCH57xBLE.a(gatt.o)
 .text.gattPrepareWriteReq
                0x0000000000000000       0x76 E:\PD_Fan\PD_Fan\Software\EXAM\BLE\LIB\libCH57xBLE.a(gatt.o)
 .text.gattProcessReliableWrites
                0x0000000000000000       0xe4 E:\PD_Fan\PD_Fan\Software\EXAM\BLE\LIB\libCH57xBLE.a(gatt.o)
 .text.gattProcessWriteLong
                0x0000000000000000       0xd4 E:\PD_Fan\PD_Fan\Software\EXAM\BLE\LIB\libCH57xBLE.a(gatt.o)
 .text.gattWriteLong
                0x0000000000000000       0x94 E:\PD_Fan\PD_Fan\Software\EXAM\BLE\LIB\libCH57xBLE.a(gatt.o)
 .text.GATT_WriteLongCharValue
                0x0000000000000000        0x8 E:\PD_Fan\PD_Fan\Software\EXAM\BLE\LIB\libCH57xBLE.a(gatt.o)
 .text.GATT_WriteLongCharDesc
                0x0000000000000000        0x8 E:\PD_Fan\PD_Fan\Software\EXAM\BLE\LIB\libCH57xBLE.a(gatt.o)
 .text.GATT_ReliableWrites
                0x0000000000000000       0xee E:\PD_Fan\PD_Fan\Software\EXAM\BLE\LIB\libCH57xBLE.a(gatt.o)
 .text.GATT_RegisterForCentMsgs
                0x0000000000000000        0xa E:\PD_Fan\PD_Fan\Software\EXAM\BLE\LIB\libCH57xBLE.a(gatt.o)
 .text          0x0000000000000000        0x0 E:\PD_Fan\PD_Fan\Software\EXAM\BLE\LIB\libCH57xBLE.a(gatt_uuid.o)
 .data          0x0000000000000000        0x0 E:\PD_Fan\PD_Fan\Software\EXAM\BLE\LIB\libCH57xBLE.a(gatt_uuid.o)
 .bss           0x0000000000000000        0x0 E:\PD_Fan\PD_Fan\Software\EXAM\BLE\LIB\libCH57xBLE.a(gatt_uuid.o)
 .text.GATT_FindUUIDRec
                0x0000000000000000      0x17a E:\PD_Fan\PD_Fan\Software\EXAM\BLE\LIB\libCH57xBLE.a(gatt_uuid.o)
 .sdata2.charAggFormatUUID
                0x0000000000000000        0x2 E:\PD_Fan\PD_Fan\Software\EXAM\BLE\LIB\libCH57xBLE.a(gatt_uuid.o)
 .sdata2.charExtPropsUUID
                0x0000000000000000        0x2 E:\PD_Fan\PD_Fan\Software\EXAM\BLE\LIB\libCH57xBLE.a(gatt_uuid.o)
 .sdata2.charFormatUUID
                0x0000000000000000        0x2 E:\PD_Fan\PD_Fan\Software\EXAM\BLE\LIB\libCH57xBLE.a(gatt_uuid.o)
 .sdata2.charUserDescUUID
                0x0000000000000000        0x2 E:\PD_Fan\PD_Fan\Software\EXAM\BLE\LIB\libCH57xBLE.a(gatt_uuid.o)
 .sdata2.extReportRefUUID
                0x0000000000000000        0x2 E:\PD_Fan\PD_Fan\Software\EXAM\BLE\LIB\libCH57xBLE.a(gatt_uuid.o)
 .sdata2.includeUUID
                0x0000000000000000        0x2 E:\PD_Fan\PD_Fan\Software\EXAM\BLE\LIB\libCH57xBLE.a(gatt_uuid.o)
 .sdata2.periPrivacyFlagUUID
                0x0000000000000000        0x2 E:\PD_Fan\PD_Fan\Software\EXAM\BLE\LIB\libCH57xBLE.a(gatt_uuid.o)
 .sdata2.reconnectAddrUUID
                0x0000000000000000        0x2 E:\PD_Fan\PD_Fan\Software\EXAM\BLE\LIB\libCH57xBLE.a(gatt_uuid.o)
 .sdata2.reportRefUUID
                0x0000000000000000        0x2 E:\PD_Fan\PD_Fan\Software\EXAM\BLE\LIB\libCH57xBLE.a(gatt_uuid.o)
 .sdata2.servCharCfgUUID
                0x0000000000000000        0x2 E:\PD_Fan\PD_Fan\Software\EXAM\BLE\LIB\libCH57xBLE.a(gatt_uuid.o)
 .sdata2.validRangeUUID
                0x0000000000000000        0x2 E:\PD_Fan\PD_Fan\Software\EXAM\BLE\LIB\libCH57xBLE.a(gatt_uuid.o)
 .text          0x0000000000000000        0x0 E:\PD_Fan\PD_Fan\Software\EXAM\BLE\LIB\libCH57xBLE.a(gattclientapp.o)
 .data          0x0000000000000000        0x0 E:\PD_Fan\PD_Fan\Software\EXAM\BLE\LIB\libCH57xBLE.a(gattclientapp.o)
 .bss           0x0000000000000000        0x0 E:\PD_Fan\PD_Fan\Software\EXAM\BLE\LIB\libCH57xBLE.a(gattclientapp.o)
 .text.gattProcessReadByType
                0x0000000000000000      0x1f4 E:\PD_Fan\PD_Fan\Software\EXAM\BLE\LIB\libCH57xBLE.a(gattclientapp.o)
 .text.gattFindClientInfo
                0x0000000000000000       0x34 E:\PD_Fan\PD_Fan\Software\EXAM\BLE\LIB\libCH57xBLE.a(gattclientapp.o)
 .text.gattClientNotifyTxCB
                0x0000000000000000       0x2c E:\PD_Fan\PD_Fan\Software\EXAM\BLE\LIB\libCH57xBLE.a(gattclientapp.o)
 .text.gattGetClientStatus
                0x0000000000000000       0x3a E:\PD_Fan\PD_Fan\Software\EXAM\BLE\LIB\libCH57xBLE.a(gattclientapp.o)
 .text.gattResetClientInfo
                0x0000000000000000       0x8e E:\PD_Fan\PD_Fan\Software\EXAM\BLE\LIB\libCH57xBLE.a(gattclientapp.o)
 .text.gattClientHandleConnStatusCB
                0x0000000000000000       0xb6 E:\PD_Fan\PD_Fan\Software\EXAM\BLE\LIB\libCH57xBLE.a(gattclientapp.o)
 .text.gattClientHandleTimerCB
                0x0000000000000000       0x64 E:\PD_Fan\PD_Fan\Software\EXAM\BLE\LIB\libCH57xBLE.a(gattclientapp.o)
 .text.gattStoreClientInfo
                0x0000000000000000       0x76 E:\PD_Fan\PD_Fan\Software\EXAM\BLE\LIB\libCH57xBLE.a(gattclientapp.o)
 .text.GATT_RegisterForInd
                0x0000000000000000        0xa E:\PD_Fan\PD_Fan\Software\EXAM\BLE\LIB\libCH57xBLE.a(gattclientapp.o)
 .text.gattProcessFindInfo
                0x0000000000000000       0x9a E:\PD_Fan\PD_Fan\Software\EXAM\BLE\LIB\libCH57xBLE.a(gattclientapp.o)
 .text.gattProcessFindByTypeValue
                0x0000000000000000       0x86 E:\PD_Fan\PD_Fan\Software\EXAM\BLE\LIB\libCH57xBLE.a(gattclientapp.o)
 .text.gattProcessReadLong
                0x0000000000000000       0x84 E:\PD_Fan\PD_Fan\Software\EXAM\BLE\LIB\libCH57xBLE.a(gattclientapp.o)
 .text.gattProcessReadByGrpType
                0x0000000000000000       0x9a E:\PD_Fan\PD_Fan\Software\EXAM\BLE\LIB\libCH57xBLE.a(gattclientapp.o)
 .text.gattProcessMultiReqs
                0x0000000000000000      0x168 E:\PD_Fan\PD_Fan\Software\EXAM\BLE\LIB\libCH57xBLE.a(gattclientapp.o)
 .text.gattClientProcessMsgCB
                0x0000000000000000      0x228 E:\PD_Fan\PD_Fan\Software\EXAM\BLE\LIB\libCH57xBLE.a(gattclientapp.o)
 .text.GATT_InitClient
                0x0000000000000000       0xe0 E:\PD_Fan\PD_Fan\Software\EXAM\BLE\LIB\libCH57xBLE.a(gattclientapp.o)
 .sbss.clientInfoTbl
                0x0000000000000000        0x4 E:\PD_Fan\PD_Fan\Software\EXAM\BLE\LIB\libCH57xBLE.a(gattclientapp.o)
 .sbss.indTaskId
                0x0000000000000000        0x1 E:\PD_Fan\PD_Fan\Software\EXAM\BLE\LIB\libCH57xBLE.a(gattclientapp.o)
 .comment       0x0000000000000000       0x34 E:\PD_Fan\PD_Fan\Software\EXAM\BLE\LIB\libCH57xBLE.a(gattclientapp.o)
 .text          0x0000000000000000        0x0 E:\PD_Fan\PD_Fan\Software\EXAM\BLE\LIB\libCH57xBLE.a(gattservapp.o)
 .data          0x0000000000000000        0x0 E:\PD_Fan\PD_Fan\Software\EXAM\BLE\LIB\libCH57xBLE.a(gattservapp.o)
 .bss           0x0000000000000000        0x0 E:\PD_Fan\PD_Fan\Software\EXAM\BLE\LIB\libCH57xBLE.a(gattservapp.o)
 .text.GATTServApp_FindAttr
                0x0000000000000000       0x1c E:\PD_Fan\PD_Fan\Software\EXAM\BLE\LIB\libCH57xBLE.a(gattservapp.o)
 .text.GATTServApp_GetParameter
                0x0000000000000000        0xe E:\PD_Fan\PD_Fan\Software\EXAM\BLE\LIB\libCH57xBLE.a(gattservapp.o)
 .text.gattServApp_SetNumPrepareWrites
                0x0000000000000000       0x3c E:\PD_Fan\PD_Fan\Software\EXAM\BLE\LIB\libCH57xBLE.a(gattservapp.o)
 .text.GATTServApp_SetParameter
                0x0000000000000000       0x60 E:\PD_Fan\PD_Fan\Software\EXAM\BLE\LIB\libCH57xBLE.a(gattservapp.o)
 .text.GATT_DeregisterService
                0x0000000000000000       0x5e E:\PD_Fan\PD_Fan\Software\EXAM\BLE\LIB\libCH57xBLE.a(gattservapp.o)
 .text.GATTServApp_DeregisterService
                0x0000000000000000       0x64 E:\PD_Fan\PD_Fan\Software\EXAM\BLE\LIB\libCH57xBLE.a(gattservapp.o)
 .text.gattServApp_SendNotiInd
                0x0000000000000000       0xa4 E:\PD_Fan\PD_Fan\Software\EXAM\BLE\LIB\libCH57xBLE.a(gattservapp.o)
 .text.GATTServApp_ProcessCharCfg
                0x0000000000000000       0xdc E:\PD_Fan\PD_Fan\Software\EXAM\BLE\LIB\libCH57xBLE.a(gattservapp.o)
 .text.GATT_GetNextHandle
                0x0000000000000000        0xa E:\PD_Fan\PD_Fan\Software\EXAM\BLE\LIB\libCH57xBLE.a(gattservapp.o)
 .text.GATT_RegisterForReq
                0x0000000000000000        0xa E:\PD_Fan\PD_Fan\Software\EXAM\BLE\LIB\libCH57xBLE.a(gattservapp.o)
 .text          0x0000000000000000        0x0 E:\PD_Fan\PD_Fan\Software\EXAM\BLE\LIB\libCH57xBLE.a(l2cap.o)
 .data          0x0000000000000000        0x0 E:\PD_Fan\PD_Fan\Software\EXAM\BLE\LIB\libCH57xBLE.a(l2cap.o)
 .bss           0x0000000000000000        0x0 E:\PD_Fan\PD_Fan\Software\EXAM\BLE\LIB\libCH57xBLE.a(l2cap.o)
 .text.l2capAllocPsm
                0x0000000000000000       0x46 E:\PD_Fan\PD_Fan\Software\EXAM\BLE\LIB\libCH57xBLE.a(l2cap.o)
 .text.L2CAP_ChannelInfo
                0x0000000000000000       0x3e E:\PD_Fan\PD_Fan\Software\EXAM\BLE\LIB\libCH57xBLE.a(l2cap.o)
 .text.L2CAP_DeregisterPsm
                0x0000000000000000       0x42 E:\PD_Fan\PD_Fan\Software\EXAM\BLE\LIB\libCH57xBLE.a(l2cap.o)
 .text.L2CAP_ParseInfoReq
                0x0000000000000000       0x1e E:\PD_Fan\PD_Fan\Software\EXAM\BLE\LIB\libCH57xBLE.a(l2cap.o)
 .text.L2CAP_PsmChannels
                0x0000000000000000       0x98 E:\PD_Fan\PD_Fan\Software\EXAM\BLE\LIB\libCH57xBLE.a(l2cap.o)
 .text.L2CAP_PsmInfo
                0x0000000000000000       0x64 E:\PD_Fan\PD_Fan\Software\EXAM\BLE\LIB\libCH57xBLE.a(l2cap.o)
 .text.L2CAP_RegisterPsm
                0x0000000000000000       0x78 E:\PD_Fan\PD_Fan\Software\EXAM\BLE\LIB\libCH57xBLE.a(l2cap.o)
 .text.L2CAP_SetControllerToHostFlowCtrl
                0x0000000000000000       0x54 E:\PD_Fan\PD_Fan\Software\EXAM\BLE\LIB\libCH57xBLE.a(l2cap.o)
 .text.L2CAP_SetUserConfig
                0x0000000000000000       0x1a E:\PD_Fan\PD_Fan\Software\EXAM\BLE\LIB\libCH57xBLE.a(l2cap.o)
 .text          0x0000000000000000        0x0 E:\PD_Fan\PD_Fan\Software\EXAM\BLE\LIB\libCH57xBLE.a(l2cap_input.o)
 .data          0x0000000000000000        0x0 E:\PD_Fan\PD_Fan\Software\EXAM\BLE\LIB\libCH57xBLE.a(l2cap_input.o)
 .bss           0x0000000000000000        0x0 E:\PD_Fan\PD_Fan\Software\EXAM\BLE\LIB\libCH57xBLE.a(l2cap_input.o)
 .text          0x0000000000000000        0x0 E:\PD_Fan\PD_Fan\Software\EXAM\BLE\LIB\libCH57xBLE.a(l2cap_output.o)
 .data          0x0000000000000000        0x0 E:\PD_Fan\PD_Fan\Software\EXAM\BLE\LIB\libCH57xBLE.a(l2cap_output.o)
 .bss           0x0000000000000000        0x0 E:\PD_Fan\PD_Fan\Software\EXAM\BLE\LIB\libCH57xBLE.a(l2cap_output.o)
 .text.l2capSendFCPkt
                0x0000000000000000       0x12 E:\PD_Fan\PD_Fan\Software\EXAM\BLE\LIB\libCH57xBLE.a(l2cap_output.o)
 .text.L2CAP_SendSDU
                0x0000000000000000       0x94 E:\PD_Fan\PD_Fan\Software\EXAM\BLE\LIB\libCH57xBLE.a(l2cap_output.o)
 .text          0x0000000000000000        0x0 E:\PD_Fan\PD_Fan\Software\EXAM\BLE\LIB\libCH57xBLE.a(l2cap_sdu.o)
 .data          0x0000000000000000        0x0 E:\PD_Fan\PD_Fan\Software\EXAM\BLE\LIB\libCH57xBLE.a(l2cap_sdu.o)
 .bss           0x0000000000000000        0x0 E:\PD_Fan\PD_Fan\Software\EXAM\BLE\LIB\libCH57xBLE.a(l2cap_sdu.o)
 .text.L2CAP_BuildConnectReq
                0x0000000000000000       0x5e E:\PD_Fan\PD_Fan\Software\EXAM\BLE\LIB\libCH57xBLE.a(l2cap_sdu.o)
 .text.L2CAP_ConnectReq
                0x0000000000000000       0x7e E:\PD_Fan\PD_Fan\Software\EXAM\BLE\LIB\libCH57xBLE.a(l2cap_sdu.o)
 .text.L2CAP_ConnectRsp
                0x0000000000000000      0x106 E:\PD_Fan\PD_Fan\Software\EXAM\BLE\LIB\libCH57xBLE.a(l2cap_sdu.o)
 .text          0x0000000000000000        0x0 E:\PD_Fan\PD_Fan\Software\EXAM\BLE\LIB\libCH57xBLE.a(linkdb.o)
 .data          0x0000000000000000        0x0 E:\PD_Fan\PD_Fan\Software\EXAM\BLE\LIB\libCH57xBLE.a(linkdb.o)
 .bss           0x0000000000000000        0x0 E:\PD_Fan\PD_Fan\Software\EXAM\BLE\LIB\libCH57xBLE.a(linkdb.o)
 .text.linkDB_Update
                0x0000000000000000       0x36 E:\PD_Fan\PD_Fan\Software\EXAM\BLE\LIB\libCH57xBLE.a(linkdb.o)
 .text          0x0000000000000000        0x0 E:\PD_Fan\PD_Fan\Software\EXAM\BLE\LIB\libCH57xBLE.a(sm.o)
 .data          0x0000000000000000        0x0 E:\PD_Fan\PD_Fan\Software\EXAM\BLE\LIB\libCH57xBLE.a(sm.o)
 .bss           0x0000000000000000        0x0 E:\PD_Fan\PD_Fan\Software\EXAM\BLE\LIB\libCH57xBLE.a(sm.o)
 .text.smAuthReqToUint8
                0x0000000000000000        0x6 E:\PD_Fan\PD_Fan\Software\EXAM\BLE\LIB\libCH57xBLE.a(sm.o)
 .text.smRegisterInitiator
                0x0000000000000000        0xa E:\PD_Fan\PD_Fan\Software\EXAM\BLE\LIB\libCH57xBLE.a(sm.o)
 .text.smRegisterResponder
                0x0000000000000000        0xa E:\PD_Fan\PD_Fan\Software\EXAM\BLE\LIB\libCH57xBLE.a(sm.o)
 .text.smpParseSecurityReq
                0x0000000000000000       0x14 E:\PD_Fan\PD_Fan\Software\EXAM\BLE\LIB\libCH57xBLE.a(sm.o)
 .text.SM_NewRandKey
                0x0000000000000000       0x54 E:\PD_Fan\PD_Fan\Software\EXAM\BLE\LIB\libCH57xBLE.a(sm.o)
 .text          0x0000000000000000        0x0 E:\PD_Fan\PD_Fan\Software\EXAM\BLE\LIB\libCH57xBLE.a(host_input.o)
 .data          0x0000000000000000        0x0 E:\PD_Fan\PD_Fan\Software\EXAM\BLE\LIB\libCH57xBLE.a(host_input.o)
 .bss           0x0000000000000000        0x0 E:\PD_Fan\PD_Fan\Software\EXAM\BLE\LIB\libCH57xBLE.a(host_input.o)
 .text.HOST_LE_AdvPktReportEvent
                0x0000000000000000       0xa0 E:\PD_Fan\PD_Fan\Software\EXAM\BLE\LIB\libCH57xBLE.a(host_input.o)
 .text.HOST_LE_ReadLocalPublicKeyCompleteEvent
                0x0000000000000000       0x64 E:\PD_Fan\PD_Fan\Software\EXAM\BLE\LIB\libCH57xBLE.a(host_input.o)
 .text.HOST_LE_GenerateDHKeyCompleteEvent
                0x0000000000000000       0x64 E:\PD_Fan\PD_Fan\Software\EXAM\BLE\LIB\libCH57xBLE.a(host_input.o)
 .text.HOST_LE_DirectAdvertisingReportEvent
                0x0000000000000000       0xc2 E:\PD_Fan\PD_Fan\Software\EXAM\BLE\LIB\libCH57xBLE.a(host_input.o)
 .text.HOST_HardwareErrorEvent
                0x0000000000000000       0x46 E:\PD_Fan\PD_Fan\Software\EXAM\BLE\LIB\libCH57xBLE.a(host_input.o)
 .text          0x0000000000000000        0x0 E:\PD_Fan\PD_Fan\Software\EXAM\BLE\LIB\libCH57xBLE.a(host_output.o)
 .data          0x0000000000000000        0x0 E:\PD_Fan\PD_Fan\Software\EXAM\BLE\LIB\libCH57xBLE.a(host_output.o)
 .bss           0x0000000000000000        0x0 E:\PD_Fan\PD_Fan\Software\EXAM\BLE\LIB\libCH57xBLE.a(host_output.o)
 .text.HCI_ReadRemoteVersionInfoCmd
                0x0000000000000000        0x8 E:\PD_Fan\PD_Fan\Software\EXAM\BLE\LIB\libCH57xBLE.a(host_output.o)
 .text.HCI_SetEventMaskCmd
                0x0000000000000000        0x4 E:\PD_Fan\PD_Fan\Software\EXAM\BLE\LIB\libCH57xBLE.a(host_output.o)
 .text.HCI_ResetCmd
                0x0000000000000000        0x8 E:\PD_Fan\PD_Fan\Software\EXAM\BLE\LIB\libCH57xBLE.a(host_output.o)
 .text.HCI_SetDataLengthCmd
                0x0000000000000000        0x8 E:\PD_Fan\PD_Fan\Software\EXAM\BLE\LIB\libCH57xBLE.a(host_output.o)
 .text.HCI_ReadTransmitPowerLevelCmd
                0x0000000000000000        0x8 E:\PD_Fan\PD_Fan\Software\EXAM\BLE\LIB\libCH57xBLE.a(host_output.o)
 .text.HCI_SetControllerToHostFlowCtrlCmd
                0x0000000000000000        0x8 E:\PD_Fan\PD_Fan\Software\EXAM\BLE\LIB\libCH57xBLE.a(host_output.o)
 .text.HCI_HostBufferSizeCmd
                0x0000000000000000        0x4 E:\PD_Fan\PD_Fan\Software\EXAM\BLE\LIB\libCH57xBLE.a(host_output.o)
 .text.HCI_SetEventMaskPage2Cmd
                0x0000000000000000        0x4 E:\PD_Fan\PD_Fan\Software\EXAM\BLE\LIB\libCH57xBLE.a(host_output.o)
 .text.HCI_ReadLocalSupportedCommandsCmd
                0x0000000000000000        0x8 E:\PD_Fan\PD_Fan\Software\EXAM\BLE\LIB\libCH57xBLE.a(host_output.o)
 .text.HCI_ReadLocalSupportedFeaturesCmd
                0x0000000000000000        0x8 E:\PD_Fan\PD_Fan\Software\EXAM\BLE\LIB\libCH57xBLE.a(host_output.o)
 .text.HCI_ReadRssiCmd
                0x0000000000000000        0x8 E:\PD_Fan\PD_Fan\Software\EXAM\BLE\LIB\libCH57xBLE.a(host_output.o)
 .text.HCI_LE_SetEventMaskCmd
                0x0000000000000000        0x4 E:\PD_Fan\PD_Fan\Software\EXAM\BLE\LIB\libCH57xBLE.a(host_output.o)
 .text.HCI_LE_ReadLocalSupportedFeaturesCmd
                0x0000000000000000        0x8 E:\PD_Fan\PD_Fan\Software\EXAM\BLE\LIB\libCH57xBLE.a(host_output.o)
 .text.HCI_LE_SetScanParamCmd
                0x0000000000000000        0x8 E:\PD_Fan\PD_Fan\Software\EXAM\BLE\LIB\libCH57xBLE.a(host_output.o)
 .text.HCI_LE_CreateConnCmd
                0x0000000000000000       0x20 E:\PD_Fan\PD_Fan\Software\EXAM\BLE\LIB\libCH57xBLE.a(host_output.o)
 .text.HCI_LE_ReadWhiteListSizeCmd
                0x0000000000000000        0x8 E:\PD_Fan\PD_Fan\Software\EXAM\BLE\LIB\libCH57xBLE.a(host_output.o)
 .text.HCI_LE_RemoveWhiteListCmd
                0x0000000000000000        0x8 E:\PD_Fan\PD_Fan\Software\EXAM\BLE\LIB\libCH57xBLE.a(host_output.o)
 .text.HCI_LE_SetHostChanClassificationCmd
                0x0000000000000000        0x8 E:\PD_Fan\PD_Fan\Software\EXAM\BLE\LIB\libCH57xBLE.a(host_output.o)
 .text.HCI_LE_ReadChannelMapCmd
                0x0000000000000000        0x8 E:\PD_Fan\PD_Fan\Software\EXAM\BLE\LIB\libCH57xBLE.a(host_output.o)
 .text.HCI_LE_ReadRemoteUsedFeaturesCmd
                0x0000000000000000        0x8 E:\PD_Fan\PD_Fan\Software\EXAM\BLE\LIB\libCH57xBLE.a(host_output.o)
 .text          0x0000000000000000        0x0 E:\PD_Fan\PD_Fan\Software\EXAM\BLE\LIB\libCH57xBLE.a(ll_connect.o)
 .data          0x0000000000000000        0x0 E:\PD_Fan\PD_Fan\Software\EXAM\BLE\LIB\libCH57xBLE.a(ll_connect.o)
 .bss           0x0000000000000000        0x0 E:\PD_Fan\PD_Fan\Software\EXAM\BLE\LIB\libCH57xBLE.a(ll_connect.o)
 .text.LL_ConnectEventRegister
                0x0000000000000000        0xa E:\PD_Fan\PD_Fan\Software\EXAM\BLE\LIB\libCH57xBLE.a(ll_connect.o)
 .text.ll_connect_get_master_number
                0x0000000000000000       0x1c E:\PD_Fan\PD_Fan\Software\EXAM\BLE\LIB\libCH57xBLE.a(ll_connect.o)
 .text.ll_connect_get_start_point
                0x0000000000000000      0x136 E:\PD_Fan\PD_Fan\Software\EXAM\BLE\LIB\libCH57xBLE.a(ll_connect.o)
 .text.LL_GetNumberOfUnAckPacket
                0x0000000000000000       0x26 E:\PD_Fan\PD_Fan\Software\EXAM\BLE\LIB\libCH57xBLE.a(ll_connect.o)
 .text          0x0000000000000000        0x0 E:\PD_Fan\PD_Fan\Software\EXAM\BLE\LIB\libCH57xBLE.a(ll_core.o)
 .data          0x0000000000000000        0x0 E:\PD_Fan\PD_Fan\Software\EXAM\BLE\LIB\libCH57xBLE.a(ll_core.o)
 .bss           0x0000000000000000        0x0 E:\PD_Fan\PD_Fan\Software\EXAM\BLE\LIB\libCH57xBLE.a(ll_core.o)
 .text          0x0000000000000000        0x0 E:\PD_Fan\PD_Fan\Software\EXAM\BLE\LIB\libCH57xBLE.a(ll_hop.o)
 .data          0x0000000000000000        0x0 E:\PD_Fan\PD_Fan\Software\EXAM\BLE\LIB\libCH57xBLE.a(ll_hop.o)
 .bss           0x0000000000000000        0x0 E:\PD_Fan\PD_Fan\Software\EXAM\BLE\LIB\libCH57xBLE.a(ll_hop.o)
 .text.LL_HopAtleastTwoChannels
                0x0000000000000000       0x40 E:\PD_Fan\PD_Fan\Software\EXAM\BLE\LIB\libCH57xBLE.a(ll_hop.o)
 .text          0x0000000000000000        0x0 E:\PD_Fan\PD_Fan\Software\EXAM\BLE\LIB\libCH57xBLE.a(ll_master.o)
 .data          0x0000000000000000        0x0 E:\PD_Fan\PD_Fan\Software\EXAM\BLE\LIB\libCH57xBLE.a(ll_master.o)
 .bss           0x0000000000000000        0x0 E:\PD_Fan\PD_Fan\Software\EXAM\BLE\LIB\libCH57xBLE.a(ll_master.o)
 .text.LL_MasterSetFirstTimer
                0x0000000000000000      0x140 E:\PD_Fan\PD_Fan\Software\EXAM\BLE\LIB\libCH57xBLE.a(ll_master.o)
 .text.LL_MasterCreateCore
                0x0000000000000000      0x162 E:\PD_Fan\PD_Fan\Software\EXAM\BLE\LIB\libCH57xBLE.a(ll_master.o)
 .text.LL_MasterEnalbe
                0x0000000000000000       0x18 E:\PD_Fan\PD_Fan\Software\EXAM\BLE\LIB\libCH57xBLE.a(ll_master.o)
 .text          0x0000000000000000        0x0 E:\PD_Fan\PD_Fan\Software\EXAM\BLE\LIB\libCH57xBLE.a(ll_pdu.o)
 .data          0x0000000000000000        0x0 E:\PD_Fan\PD_Fan\Software\EXAM\BLE\LIB\libCH57xBLE.a(ll_pdu.o)
 .bss           0x0000000000000000        0x0 E:\PD_Fan\PD_Fan\Software\EXAM\BLE\LIB\libCH57xBLE.a(ll_pdu.o)
 .text          0x0000000000000000        0x0 E:\PD_Fan\PD_Fan\Software\EXAM\BLE\LIB\libCH57xBLE.a(ll_report.o)
 .data          0x0000000000000000        0x0 E:\PD_Fan\PD_Fan\Software\EXAM\BLE\LIB\libCH57xBLE.a(ll_report.o)
 .bss           0x0000000000000000        0x0 E:\PD_Fan\PD_Fan\Software\EXAM\BLE\LIB\libCH57xBLE.a(ll_report.o)
 .text          0x0000000000000000        0x0 E:\PD_Fan\PD_Fan\Software\EXAM\BLE\LIB\libCH57xBLE.a(ll_scan.o)
 .data          0x0000000000000000        0x0 E:\PD_Fan\PD_Fan\Software\EXAM\BLE\LIB\libCH57xBLE.a(ll_scan.o)
 .bss           0x0000000000000000        0x0 E:\PD_Fan\PD_Fan\Software\EXAM\BLE\LIB\libCH57xBLE.a(ll_scan.o)
 .text.llScanTraverseaChannel
                0x0000000000000000       0xe2 E:\PD_Fan\PD_Fan\Software\EXAM\BLE\LIB\libCH57xBLE.a(ll_scan.o)
 .text.llScanSet
                0x0000000000000000      0x152 E:\PD_Fan\PD_Fan\Software\EXAM\BLE\LIB\libCH57xBLE.a(ll_scan.o)
 .text.llScanCreateCore
                0x0000000000000000       0x7a E:\PD_Fan\PD_Fan\Software\EXAM\BLE\LIB\libCH57xBLE.a(ll_scan.o)
 .text.llScanStart
                0x0000000000000000       0x94 E:\PD_Fan\PD_Fan\Software\EXAM\BLE\LIB\libCH57xBLE.a(ll_scan.o)
 .text.ll_scan_filter
                0x0000000000000000      0x152 E:\PD_Fan\PD_Fan\Software\EXAM\BLE\LIB\libCH57xBLE.a(ll_scan.o)
 .text.ll_scan_whitelist
                0x0000000000000000       0x32 E:\PD_Fan\PD_Fan\Software\EXAM\BLE\LIB\libCH57xBLE.a(ll_scan.o)
 .text.ll_scan_add_advertising_to_report
                0x0000000000000000      0x142 E:\PD_Fan\PD_Fan\Software\EXAM\BLE\LIB\libCH57xBLE.a(ll_scan.o)
 .text.ll_scan_remove_all_report
                0x0000000000000000       0x26 E:\PD_Fan\PD_Fan\Software\EXAM\BLE\LIB\libCH57xBLE.a(ll_scan.o)
 .text.ll_scan_rx
                0x0000000000000000      0x2c2 E:\PD_Fan\PD_Fan\Software\EXAM\BLE\LIB\libCH57xBLE.a(ll_scan.o)
 .text.ll_scan_process
                0x0000000000000000      0x198 E:\PD_Fan\PD_Fan\Software\EXAM\BLE\LIB\libCH57xBLE.a(ll_scan.o)
 .text.LL_ScanShut
                0x0000000000000000       0x30 E:\PD_Fan\PD_Fan\Software\EXAM\BLE\LIB\libCH57xBLE.a(ll_scan.o)
 .text.LL_ScanEnable
                0x0000000000000000       0x68 E:\PD_Fan\PD_Fan\Software\EXAM\BLE\LIB\libCH57xBLE.a(ll_scan.o)
 .text          0x0000000000000000        0x0 E:\PD_Fan\PD_Fan\Software\EXAM\BLE\LIB\libCH57xBLE.a(ll_slave.o)
 .data          0x0000000000000000        0x0 E:\PD_Fan\PD_Fan\Software\EXAM\BLE\LIB\libCH57xBLE.a(ll_slave.o)
 .bss           0x0000000000000000        0x0 E:\PD_Fan\PD_Fan\Software\EXAM\BLE\LIB\libCH57xBLE.a(ll_slave.o)
 .text          0x0000000000000000        0x0 E:\PD_Fan\PD_Fan\Software\EXAM\BLE\LIB\libCH57xBLE.a(ll_whitelist.o)
 .data          0x0000000000000000        0x0 E:\PD_Fan\PD_Fan\Software\EXAM\BLE\LIB\libCH57xBLE.a(ll_whitelist.o)
 .bss           0x0000000000000000        0x0 E:\PD_Fan\PD_Fan\Software\EXAM\BLE\LIB\libCH57xBLE.a(ll_whitelist.o)
 .text.LL_WhitelistRemove
                0x0000000000000000       0x92 E:\PD_Fan\PD_Fan\Software\EXAM\BLE\LIB\libCH57xBLE.a(ll_whitelist.o)
 .text          0x0000000000000000        0x0 E:\PD_Fan\PD_Fan\Software\EXAM\BLE\LIB\libCH57xBLE.a(aes.o)
 .data          0x0000000000000000        0x0 E:\PD_Fan\PD_Fan\Software\EXAM\BLE\LIB\libCH57xBLE.a(aes.o)
 .bss           0x0000000000000000        0x0 E:\PD_Fan\PD_Fan\Software\EXAM\BLE\LIB\libCH57xBLE.a(aes.o)
 .text.AES_DevAESDec
                0x0000000000000000      0x1ae E:\PD_Fan\PD_Fan\Software\EXAM\BLE\LIB\libCH57xBLE.a(aes.o)
 .text.LL_Decrypt
                0x0000000000000000       0x14 E:\PD_Fan\PD_Fan\Software\EXAM\BLE\LIB\libCH57xBLE.a(aes.o)
 .text          0x0000000000000000        0x0 E:\PD_Fan\PD_Fan\Software\EXAM\BLE\LIB\libCH57xBLE.a(bb.o)
 .data          0x0000000000000000        0x0 E:\PD_Fan\PD_Fan\Software\EXAM\BLE\LIB\libCH57xBLE.a(bb.o)
 .bss           0x0000000000000000        0x0 E:\PD_Fan\PD_Fan\Software\EXAM\BLE\LIB\libCH57xBLE.a(bb.o)
 .text.BLE_ReadRssi
                0x0000000000000000       0x14 E:\PD_Fan\PD_Fan\Software\EXAM\BLE\LIB\libCH57xBLE.a(bb.o)
 .text          0x0000000000000000        0x0 E:\PD_Fan\PD_Fan\Software\EXAM\BLE\LIB\libCH57xBLE.a(dma.o)
 .data          0x0000000000000000        0x0 E:\PD_Fan\PD_Fan\Software\EXAM\BLE\LIB\libCH57xBLE.a(dma.o)
 .bss           0x0000000000000000        0x0 E:\PD_Fan\PD_Fan\Software\EXAM\BLE\LIB\libCH57xBLE.a(dma.o)
 .text          0x0000000000000000        0x0 E:\PD_Fan\PD_Fan\Software\EXAM\BLE\LIB\libCH57xBLE.a(ip.o)
 .data          0x0000000000000000        0x0 E:\PD_Fan\PD_Fan\Software\EXAM\BLE\LIB\libCH57xBLE.a(ip.o)
 .bss           0x0000000000000000        0x0 E:\PD_Fan\PD_Fan\Software\EXAM\BLE\LIB\libCH57xBLE.a(ip.o)
 .text.BLE_ReadCfo
                0x0000000000000000        0xe E:\PD_Fan\PD_Fan\Software\EXAM\BLE\LIB\libCH57xBLE.a(ip.o)
 .text.GetTxPower
                0x0000000000000000       0x1c E:\PD_Fan\PD_Fan\Software\EXAM\BLE\LIB\libCH57xBLE.a(ip.o)
 .text.ll_hw_api_rx_direct_test
                0x0000000000000000       0x9c E:\PD_Fan\PD_Fan\Software\EXAM\BLE\LIB\libCH57xBLE.a(ip.o)
 .text.BLE_PAControlInit
                0x0000000000000000       0x20 E:\PD_Fan\PD_Fan\Software\EXAM\BLE\LIB\libCH57xBLE.a(ip.o)
 .text.BLE_AccessAddressGenerate
                0x0000000000000000       0xbe E:\PD_Fan\PD_Fan\Software\EXAM\BLE\LIB\libCH57xBLE.a(ip.o)
 .rodata.TX_POWER
                0x0000000000000000       0x20 E:\PD_Fan\PD_Fan\Software\EXAM\BLE\LIB\libCH57xBLE.a(ip.o)
 .text          0x0000000000000000        0x0 E:\PD_Fan\PD_Fan\Software\EXAM\BLE\LIB\libCH57xBLE.a(lle.o)
 .data          0x0000000000000000        0x0 E:\PD_Fan\PD_Fan\Software\EXAM\BLE\LIB\libCH57xBLE.a(lle.o)
 .bss           0x0000000000000000        0x0 E:\PD_Fan\PD_Fan\Software\EXAM\BLE\LIB\libCH57xBLE.a(lle.o)
 .text          0x0000000000000000        0x0 E:\PD_Fan\PD_Fan\Software\EXAM\BLE\LIB\libCH57xBLE.a(rf_fh.o)
 .data          0x0000000000000000        0x0 E:\PD_Fan\PD_Fan\Software\EXAM\BLE\LIB\libCH57xBLE.a(rf_fh.o)
 .bss           0x0000000000000000        0x0 E:\PD_Fan\PD_Fan\Software\EXAM\BLE\LIB\libCH57xBLE.a(rf_fh.o)
 .text.RF_FrequencyHoppingGet
                0x0000000000000000       0xbc E:\PD_Fan\PD_Fan\Software\EXAM\BLE\LIB\libCH57xBLE.a(rf_fh.o)
 .text.rfStop   0x0000000000000000       0x28 E:\PD_Fan\PD_Fan\Software\EXAM\BLE\LIB\libCH57xBLE.a(rf_fh.o)
 .text.RF_TxProcess
                0x0000000000000000      0x15a E:\PD_Fan\PD_Fan\Software\EXAM\BLE\LIB\libCH57xBLE.a(rf_fh.o)
 .text.RF_BondingErase
                0x0000000000000000       0x58 E:\PD_Fan\PD_Fan\Software\EXAM\BLE\LIB\libCH57xBLE.a(rf_fh.o)
 .text.RF_Config
                0x0000000000000000      0x12e E:\PD_Fan\PD_Fan\Software\EXAM\BLE\LIB\libCH57xBLE.a(rf_fh.o)
 .text.RF_Tx    0x0000000000000000      0x2c4 E:\PD_Fan\PD_Fan\Software\EXAM\BLE\LIB\libCH57xBLE.a(rf_fh.o)
 .text.RF_FrequencyHoppingTx
                0x0000000000000000      0x3be E:\PD_Fan\PD_Fan\Software\EXAM\BLE\LIB\libCH57xBLE.a(rf_fh.o)
 .text.RF_RxProcess
                0x0000000000000000      0x3ea E:\PD_Fan\PD_Fan\Software\EXAM\BLE\LIB\libCH57xBLE.a(rf_fh.o)
 .text.RF_Shut  0x0000000000000000       0x9c E:\PD_Fan\PD_Fan\Software\EXAM\BLE\LIB\libCH57xBLE.a(rf_fh.o)
 .text.RF_FrequencyHoppingShut
                0x0000000000000000       0x92 E:\PD_Fan\PD_Fan\Software\EXAM\BLE\LIB\libCH57xBLE.a(rf_fh.o)
 .text.rf_hop_heart_beat
                0x0000000000000000      0x128 E:\PD_Fan\PD_Fan\Software\EXAM\BLE\LIB\libCH57xBLE.a(rf_fh.o)
 .text.RFFH_ProcessEvent
                0x0000000000000000      0x110 E:\PD_Fan\PD_Fan\Software\EXAM\BLE\LIB\libCH57xBLE.a(rf_fh.o)
 .text.RF_FrequencyHoppingRx
                0x0000000000000000      0x3b2 E:\PD_Fan\PD_Fan\Software\EXAM\BLE\LIB\libCH57xBLE.a(rf_fh.o)
 .text.RF_SetChannel
                0x0000000000000000       0x56 E:\PD_Fan\PD_Fan\Software\EXAM\BLE\LIB\libCH57xBLE.a(rf_fh.o)
 .text.RF_RoleInit
                0x0000000000000000       0x58 E:\PD_Fan\PD_Fan\Software\EXAM\BLE\LIB\libCH57xBLE.a(rf_fh.o)
 .rodata.RF_FrequencyHoppingTx.str1.4
                0x0000000000000000        0x7 E:\PD_Fan\PD_Fan\Software\EXAM\BLE\LIB\libCH57xBLE.a(rf_fh.o)
 .text          0x0000000000000000        0x0 E:\PD_Fan\PD_Fan\Software\EXAM\BLE\LIB\libCH57xBLE.a(rfend.o)
 .data          0x0000000000000000        0x0 E:\PD_Fan\PD_Fan\Software\EXAM\BLE\LIB\libCH57xBLE.a(rfend.o)
 .bss           0x0000000000000000        0x0 E:\PD_Fan\PD_Fan\Software\EXAM\BLE\LIB\libCH57xBLE.a(rfend.o)
 .text.RFEND_SetDACREF_TUNE
                0x0000000000000000       0x20 E:\PD_Fan\PD_Fan\Software\EXAM\BLE\LIB\libCH57xBLE.a(rfend.o)
 .text.RFEND_GetDACREF_TUNE
                0x0000000000000000       0x12 E:\PD_Fan\PD_Fan\Software\EXAM\BLE\LIB\libCH57xBLE.a(rfend.o)
 .text.RFEND_SetSensitivity
                0x0000000000000000       0x9a E:\PD_Fan\PD_Fan\Software\EXAM\BLE\LIB\libCH57xBLE.a(rfend.o)
 .text.RFEND_SetAdcMode
                0x0000000000000000        0xa E:\PD_Fan\PD_Fan\Software\EXAM\BLE\LIB\libCH57xBLE.a(rfend.o)
 .text.RFEND_TXCtuneSet
                0x0000000000000000       0x7e E:\PD_Fan\PD_Fan\Software\EXAM\BLE\LIB\libCH57xBLE.a(rfend.o)
 .text.RFEND_TXCtuneGet
                0x0000000000000000       0x70 E:\PD_Fan\PD_Fan\Software\EXAM\BLE\LIB\libCH57xBLE.a(rfend.o)
 .text          0x0000000000000000        0x0 E:\PD_Fan\PD_Fan\Software\EXAM\BLE\LIB\libCH57xBLE.a(api_c.o)
 .data          0x0000000000000000        0x0 E:\PD_Fan\PD_Fan\Software\EXAM\BLE\LIB\libCH57xBLE.a(api_c.o)
 .bss           0x0000000000000000        0x0 E:\PD_Fan\PD_Fan\Software\EXAM\BLE\LIB\libCH57xBLE.a(api_c.o)
 .text.dtmRx    0x0000000000000000       0x52 E:\PD_Fan\PD_Fan\Software\EXAM\BLE\LIB\libCH57xBLE.a(api_c.o)
 .text.API_ReadRemoteVersionInfoCmd
                0x0000000000000000       0x42 E:\PD_Fan\PD_Fan\Software\EXAM\BLE\LIB\libCH57xBLE.a(api_c.o)
 .text.API_SetEventMaskCmd
                0x0000000000000000       0x38 E:\PD_Fan\PD_Fan\Software\EXAM\BLE\LIB\libCH57xBLE.a(api_c.o)
 .text.API_ResetCmd
                0x0000000000000000       0x2e E:\PD_Fan\PD_Fan\Software\EXAM\BLE\LIB\libCH57xBLE.a(api_c.o)
 .text.API_ReadTransmitPowerLevelCmd
                0x0000000000000000       0x3e E:\PD_Fan\PD_Fan\Software\EXAM\BLE\LIB\libCH57xBLE.a(api_c.o)
 .text.API_SetControllerToHostFlowCtrlCmd
                0x0000000000000000       0x4a E:\PD_Fan\PD_Fan\Software\EXAM\BLE\LIB\libCH57xBLE.a(api_c.o)
 .text.API_HostBufferSizeCmd
                0x0000000000000000       0x2c E:\PD_Fan\PD_Fan\Software\EXAM\BLE\LIB\libCH57xBLE.a(api_c.o)
 .text.API_SetEventMaskPage2Cmd
                0x0000000000000000       0x38 E:\PD_Fan\PD_Fan\Software\EXAM\BLE\LIB\libCH57xBLE.a(api_c.o)
 .text.API_ReadAuthPayloadTimeoutCmd
                0x0000000000000000       0x40 E:\PD_Fan\PD_Fan\Software\EXAM\BLE\LIB\libCH57xBLE.a(api_c.o)
 .text.API_WriteAuthPayloadTimeoutCmd
                0x0000000000000000       0x3c E:\PD_Fan\PD_Fan\Software\EXAM\BLE\LIB\libCH57xBLE.a(api_c.o)
 .text.API_ReadLocalVersionInfoCmd
                0x0000000000000000       0x2e E:\PD_Fan\PD_Fan\Software\EXAM\BLE\LIB\libCH57xBLE.a(api_c.o)
 .text.API_ReadLocalSupportedCommandsCmd
                0x0000000000000000       0x5a E:\PD_Fan\PD_Fan\Software\EXAM\BLE\LIB\libCH57xBLE.a(api_c.o)
 .text.API_ReadLocalSupportedFeaturesCmd
                0x0000000000000000       0x2e E:\PD_Fan\PD_Fan\Software\EXAM\BLE\LIB\libCH57xBLE.a(api_c.o)
 .text.API_ReadReadBufferSizeCmd
                0x0000000000000000       0x3a E:\PD_Fan\PD_Fan\Software\EXAM\BLE\LIB\libCH57xBLE.a(api_c.o)
 .text.API_ReadRssiCmd
                0x0000000000000000       0x40 E:\PD_Fan\PD_Fan\Software\EXAM\BLE\LIB\libCH57xBLE.a(api_c.o)
 .text.API_LE_SetEventMaskCmd
                0x0000000000000000       0x36 E:\PD_Fan\PD_Fan\Software\EXAM\BLE\LIB\libCH57xBLE.a(api_c.o)
 .text.API_LE_ReadLocalSupportedFeaturesCmd
                0x0000000000000000       0x2e E:\PD_Fan\PD_Fan\Software\EXAM\BLE\LIB\libCH57xBLE.a(api_c.o)
 .text.API_LE_ReadAdvChanTxPowerCmd
                0x0000000000000000       0x2e E:\PD_Fan\PD_Fan\Software\EXAM\BLE\LIB\libCH57xBLE.a(api_c.o)
 .text.API_LE_SetScanParamCmd
                0x0000000000000000       0x2c E:\PD_Fan\PD_Fan\Software\EXAM\BLE\LIB\libCH57xBLE.a(api_c.o)
 .text.API_LE_CreateConnCmd
                0x0000000000000000       0x3e E:\PD_Fan\PD_Fan\Software\EXAM\BLE\LIB\libCH57xBLE.a(api_c.o)
 .text.API_LE_ReadWhiteListSizeCmd
                0x0000000000000000       0x2e E:\PD_Fan\PD_Fan\Software\EXAM\BLE\LIB\libCH57xBLE.a(api_c.o)
 .text.API_LE_RemoveWhiteListCmd
                0x0000000000000000       0x2c E:\PD_Fan\PD_Fan\Software\EXAM\BLE\LIB\libCH57xBLE.a(api_c.o)
 .text.API_LE_SetHostChanClassificationCmd
                0x0000000000000000       0x2c E:\PD_Fan\PD_Fan\Software\EXAM\BLE\LIB\libCH57xBLE.a(api_c.o)
 .text.API_LE_ReadChannelMapCmd
                0x0000000000000000       0x46 E:\PD_Fan\PD_Fan\Software\EXAM\BLE\LIB\libCH57xBLE.a(api_c.o)
 .text.API_LE_ReadRemoteUsedFeaturesCmd
                0x0000000000000000       0x42 E:\PD_Fan\PD_Fan\Software\EXAM\BLE\LIB\libCH57xBLE.a(api_c.o)
 .text.API_LE_EncryptCmd
                0x0000000000000000       0x2c E:\PD_Fan\PD_Fan\Software\EXAM\BLE\LIB\libCH57xBLE.a(api_c.o)
 .text.API_LE_ReadSupportedStatesCmd
                0x0000000000000000       0x2e E:\PD_Fan\PD_Fan\Software\EXAM\BLE\LIB\libCH57xBLE.a(api_c.o)
 .text.API_LE_ReceiverTestCmd
                0x0000000000000000       0x4c E:\PD_Fan\PD_Fan\Software\EXAM\BLE\LIB\libCH57xBLE.a(api_c.o)
 .text.API_LE_TransmitterTestCmd
                0x0000000000000000       0xa2 E:\PD_Fan\PD_Fan\Software\EXAM\BLE\LIB\libCH57xBLE.a(api_c.o)
 .text.API_LE_TestEndCmd
                0x0000000000000000       0x3e E:\PD_Fan\PD_Fan\Software\EXAM\BLE\LIB\libCH57xBLE.a(api_c.o)
 .text.API_MB_SetTxPowerCmd
                0x0000000000000000       0x2c E:\PD_Fan\PD_Fan\Software\EXAM\BLE\LIB\libCH57xBLE.a(api_c.o)
 .text.API_MB_TuneXT32MCmd
                0x0000000000000000        0x4 E:\PD_Fan\PD_Fan\Software\EXAM\BLE\LIB\libCH57xBLE.a(api_c.o)
 .text.API_MB_SingleCarrierCmd
                0x0000000000000000       0x2c E:\PD_Fan\PD_Fan\Software\EXAM\BLE\LIB\libCH57xBLE.a(api_c.o)
 .text.API_MB_WriteRegisterCmd
                0x0000000000000000       0x2a E:\PD_Fan\PD_Fan\Software\EXAM\BLE\LIB\libCH57xBLE.a(api_c.o)
 .text.API_MB_ReadRegisterCmd
                0x0000000000000000       0x58 E:\PD_Fan\PD_Fan\Software\EXAM\BLE\LIB\libCH57xBLE.a(api_c.o)
 .text.API_LE_SetDataLengthCmd
                0x0000000000000000       0x3a E:\PD_Fan\PD_Fan\Software\EXAM\BLE\LIB\libCH57xBLE.a(api_c.o)
 .text.API_LE_ReadSuggestedDefaultDataLength
                0x0000000000000000       0x30 E:\PD_Fan\PD_Fan\Software\EXAM\BLE\LIB\libCH57xBLE.a(api_c.o)
 .text.API_LE_WriteSuggestedDefaultDataLength
                0x0000000000000000       0x2e E:\PD_Fan\PD_Fan\Software\EXAM\BLE\LIB\libCH57xBLE.a(api_c.o)
 .text.API_LE_ReadLocalPublicKeyCmd
                0x0000000000000000        0x4 E:\PD_Fan\PD_Fan\Software\EXAM\BLE\LIB\libCH57xBLE.a(api_c.o)
 .text.API_LE_GenerateDHKeyCmd
                0x0000000000000000        0x4 E:\PD_Fan\PD_Fan\Software\EXAM\BLE\LIB\libCH57xBLE.a(api_c.o)
 .text.API_LE_RemoveDeviceFromResolvingList
                0x0000000000000000       0x2e E:\PD_Fan\PD_Fan\Software\EXAM\BLE\LIB\libCH57xBLE.a(api_c.o)
 .text.API_LE_ReadResolvingListSizeCmd
                0x0000000000000000       0x30 E:\PD_Fan\PD_Fan\Software\EXAM\BLE\LIB\libCH57xBLE.a(api_c.o)
 .text.API_LE_ReadPeerResolvableAddressCmd
                0x0000000000000000       0x30 E:\PD_Fan\PD_Fan\Software\EXAM\BLE\LIB\libCH57xBLE.a(api_c.o)
 .text.API_LE_ReadLocalResolvableAddressCmd
                0x0000000000000000       0x30 E:\PD_Fan\PD_Fan\Software\EXAM\BLE\LIB\libCH57xBLE.a(api_c.o)
 .text.API_LE_ReadMaximumDataLengthCmd
                0x0000000000000000       0x64 E:\PD_Fan\PD_Fan\Software\EXAM\BLE\LIB\libCH57xBLE.a(api_c.o)
 .text.API_GetConnectNumeber
                0x0000000000000000        0xa E:\PD_Fan\PD_Fan\Software\EXAM\BLE\LIB\libCH57xBLE.a(api_c.o)
 .text          0x0000000000000000        0x0 E:\PD_Fan\PD_Fan\Software\EXAM\BLE\LIB\libCH57xBLE.a(ctl_input.o)
 .data          0x0000000000000000        0x0 E:\PD_Fan\PD_Fan\Software\EXAM\BLE\LIB\libCH57xBLE.a(ctl_input.o)
 .bss           0x0000000000000000        0x0 E:\PD_Fan\PD_Fan\Software\EXAM\BLE\LIB\libCH57xBLE.a(ctl_input.o)
 .text.LL_ReceiverTest
                0x0000000000000000       0x5e E:\PD_Fan\PD_Fan\Software\EXAM\BLE\LIB\libCH57xBLE.a(ctl_input.o)
 .text.LL_TestEnd
                0x0000000000000000       0x84 E:\PD_Fan\PD_Fan\Software\EXAM\BLE\LIB\libCH57xBLE.a(ctl_input.o)
 .text.LL_SetTxPowerLevel
                0x0000000000000000       0xb4 E:\PD_Fan\PD_Fan\Software\EXAM\BLE\LIB\libCH57xBLE.a(ctl_input.o)
 .text.LL_SingleChannel
                0x0000000000000000       0x9e E:\PD_Fan\PD_Fan\Software\EXAM\BLE\LIB\libCH57xBLE.a(ctl_input.o)
 .text.LL_ReadRemoteVersionInfo
                0x0000000000000000       0x6c E:\PD_Fan\PD_Fan\Software\EXAM\BLE\LIB\libCH57xBLE.a(ctl_input.o)
 .text.LL_Reset
                0x0000000000000000       0x7e E:\PD_Fan\PD_Fan\Software\EXAM\BLE\LIB\libCH57xBLE.a(ctl_input.o)
 .text.LL_ReadTxPowerLevel
                0x0000000000000000       0x44 E:\PD_Fan\PD_Fan\Software\EXAM\BLE\LIB\libCH57xBLE.a(ctl_input.o)
 .text.LL_SetControllerToHostFlowCtrl
                0x0000000000000000       0x18 E:\PD_Fan\PD_Fan\Software\EXAM\BLE\LIB\libCH57xBLE.a(ctl_input.o)
 .text.LL_ReadAuthPayloadTimeout
                0x0000000000000000       0x2c E:\PD_Fan\PD_Fan\Software\EXAM\BLE\LIB\libCH57xBLE.a(ctl_input.o)
 .text.LL_WriteAuthPayloadTimeout
                0x0000000000000000       0x6a E:\PD_Fan\PD_Fan\Software\EXAM\BLE\LIB\libCH57xBLE.a(ctl_input.o)
 .text.LL_ReadLocalVersionInfo
                0x0000000000000000       0x52 E:\PD_Fan\PD_Fan\Software\EXAM\BLE\LIB\libCH57xBLE.a(ctl_input.o)
 .text.LL_ReadLocalSupportedCommands
                0x0000000000000000       0x20 E:\PD_Fan\PD_Fan\Software\EXAM\BLE\LIB\libCH57xBLE.a(ctl_input.o)
 .text.LL_ReadLocalSupportedFeatures
                0x0000000000000000       0x1e E:\PD_Fan\PD_Fan\Software\EXAM\BLE\LIB\libCH57xBLE.a(ctl_input.o)
 .text.LL_ReadRssi
                0x0000000000000000       0x26 E:\PD_Fan\PD_Fan\Software\EXAM\BLE\LIB\libCH57xBLE.a(ctl_input.o)
 .text.LL_LE_ReadLocalSupportedFeatures
                0x0000000000000000        0x8 E:\PD_Fan\PD_Fan\Software\EXAM\BLE\LIB\libCH57xBLE.a(ctl_input.o)
 .text.LL_ReadAdvChanTxPower
                0x0000000000000000       0x16 E:\PD_Fan\PD_Fan\Software\EXAM\BLE\LIB\libCH57xBLE.a(ctl_input.o)
 .text.LL_SetScanParam
                0x0000000000000000       0x70 E:\PD_Fan\PD_Fan\Software\EXAM\BLE\LIB\libCH57xBLE.a(ctl_input.o)
 .text.LL_CreateConn
                0x0000000000000000      0x1e6 E:\PD_Fan\PD_Fan\Software\EXAM\BLE\LIB\libCH57xBLE.a(ctl_input.o)
 .text.LL_ReadSuggestedDefaultDataLength
                0x0000000000000000       0x30 E:\PD_Fan\PD_Fan\Software\EXAM\BLE\LIB\libCH57xBLE.a(ctl_input.o)
 .text.LL_WriteSuggestedDefaultDataLength
                0x0000000000000000       0x14 E:\PD_Fan\PD_Fan\Software\EXAM\BLE\LIB\libCH57xBLE.a(ctl_input.o)
 .text.LL_SetDataLength
                0x0000000000000000       0x66 E:\PD_Fan\PD_Fan\Software\EXAM\BLE\LIB\libCH57xBLE.a(ctl_input.o)
 .text.LL_ReadSupportedStates
                0x0000000000000000       0x4e E:\PD_Fan\PD_Fan\Software\EXAM\BLE\LIB\libCH57xBLE.a(ctl_input.o)
 .text.LL_RemoveWhiteListDevice
                0x0000000000000000       0x76 E:\PD_Fan\PD_Fan\Software\EXAM\BLE\LIB\libCH57xBLE.a(ctl_input.o)
 .text.LL_ReadWlSize
                0x0000000000000000       0x10 E:\PD_Fan\PD_Fan\Software\EXAM\BLE\LIB\libCH57xBLE.a(ctl_input.o)
 .text.LL_SetHostChanClassification
                0x0000000000000000       0x46 E:\PD_Fan\PD_Fan\Software\EXAM\BLE\LIB\libCH57xBLE.a(ctl_input.o)
 .text.LL_ReadChanMap
                0x0000000000000000       0x32 E:\PD_Fan\PD_Fan\Software\EXAM\BLE\LIB\libCH57xBLE.a(ctl_input.o)
 .text.LL_ReadRemoteUsedFeatures
                0x0000000000000000       0x32 E:\PD_Fan\PD_Fan\Software\EXAM\BLE\LIB\libCH57xBLE.a(ctl_input.o)
 .text.LL_RemoveDeviceFromResolvingList
                0x0000000000000000       0x7a E:\PD_Fan\PD_Fan\Software\EXAM\BLE\LIB\libCH57xBLE.a(ctl_input.o)
 .text.LL_ReadResolvingListSize
                0x0000000000000000       0x10 E:\PD_Fan\PD_Fan\Software\EXAM\BLE\LIB\libCH57xBLE.a(ctl_input.o)
 .text.LL_ReadPeerResolvableAddress
                0x0000000000000000       0x44 E:\PD_Fan\PD_Fan\Software\EXAM\BLE\LIB\libCH57xBLE.a(ctl_input.o)
 .text.LL_ReadLocalResolvableAddress
                0x0000000000000000       0x44 E:\PD_Fan\PD_Fan\Software\EXAM\BLE\LIB\libCH57xBLE.a(ctl_input.o)
 .rodata.supportedCmdsTable
                0x0000000000000000       0x40 E:\PD_Fan\PD_Fan\Software\EXAM\BLE\LIB\libCH57xBLE.a(ctl_input.o)
 .text          0x0000000000000000        0x0 E:\PD_Fan\PD_Fan\Software\EXAM\BLE\LIB\libCH57xBLE.a(ctl_output.o)
 .data          0x0000000000000000        0x0 E:\PD_Fan\PD_Fan\Software\EXAM\BLE\LIB\libCH57xBLE.a(ctl_output.o)
 .bss           0x0000000000000000        0x0 E:\PD_Fan\PD_Fan\Software\EXAM\BLE\LIB\libCH57xBLE.a(ctl_output.o)
 .text.HCI_SetEventMask
                0x0000000000000000        0x2 E:\PD_Fan\PD_Fan\Software\EXAM\BLE\LIB\libCH57xBLE.a(ctl_output.o)
 .text.HCI_SetEventMaskPage2
                0x0000000000000000        0x2 E:\PD_Fan\PD_Fan\Software\EXAM\BLE\LIB\libCH57xBLE.a(ctl_output.o)
 .text.HCI_SetLeEventMask
                0x0000000000000000       0x14 E:\PD_Fan\PD_Fan\Software\EXAM\BLE\LIB\libCH57xBLE.a(ctl_output.o)
 .text.HCI_LE_AdvertisingReportCback
                0x0000000000000000        0xc E:\PD_Fan\PD_Fan\Software\EXAM\BLE\LIB\libCH57xBLE.a(ctl_output.o)
 .text.HCI_LE_ReadLocalPublicKeyCompleteCback
                0x0000000000000000        0x8 E:\PD_Fan\PD_Fan\Software\EXAM\BLE\LIB\libCH57xBLE.a(ctl_output.o)
 .text.HCI_LE_GenerateDHKeyCompleteCback
                0x0000000000000000        0x8 E:\PD_Fan\PD_Fan\Software\EXAM\BLE\LIB\libCH57xBLE.a(ctl_output.o)
 .text.HCI_LE_DirectAdvertisingReportCback
                0x0000000000000000        0xc E:\PD_Fan\PD_Fan\Software\EXAM\BLE\LIB\libCH57xBLE.a(ctl_output.o)
 .text.HCI_HardwareErrorCback
                0x0000000000000000        0x8 E:\PD_Fan\PD_Fan\Software\EXAM\BLE\LIB\libCH57xBLE.a(ctl_output.o)
 .text          0x0000000000000000        0x0 E:\PD_Fan\PD_Fan\Software\EXAM\BLE\LIB\libCH57xBLE.a(broadcaster.o)
 .data          0x0000000000000000        0x0 E:\PD_Fan\PD_Fan\Software\EXAM\BLE\LIB\libCH57xBLE.a(broadcaster.o)
 .bss           0x0000000000000000        0x0 E:\PD_Fan\PD_Fan\Software\EXAM\BLE\LIB\libCH57xBLE.a(broadcaster.o)
 .text.GAPRole_BroadcasterProcessEvent
                0x0000000000000000      0x1e6 E:\PD_Fan\PD_Fan\Software\EXAM\BLE\LIB\libCH57xBLE.a(broadcaster.o)
 .text.GAPRole_BroadcasterStartDevice
                0x0000000000000000       0x46 E:\PD_Fan\PD_Fan\Software\EXAM\BLE\LIB\libCH57xBLE.a(broadcaster.o)
 .text.GAPRole_BroadcasterEnable
                0x0000000000000000       0x86 E:\PD_Fan\PD_Fan\Software\EXAM\BLE\LIB\libCH57xBLE.a(broadcaster.o)
 .text          0x0000000000000000        0x0 E:\PD_Fan\PD_Fan\Software\EXAM\BLE\LIB\libCH57xBLE.a(gapbondmgr.o)
 .data          0x0000000000000000        0x0 E:\PD_Fan\PD_Fan\Software\EXAM\BLE\LIB\libCH57xBLE.a(gapbondmgr.o)
 .bss           0x0000000000000000        0x0 E:\PD_Fan\PD_Fan\Software\EXAM\BLE\LIB\libCH57xBLE.a(gapbondmgr.o)
 .text.GAPBondMgr_CentralRegister
                0x0000000000000000       0x46 E:\PD_Fan\PD_Fan\Software\EXAM\BLE\LIB\libCH57xBLE.a(gapbondmgr.o)
 .text.GAPBondMgr_PasscodeRsp
                0x0000000000000000       0x4a E:\PD_Fan\PD_Fan\Software\EXAM\BLE\LIB\libCH57xBLE.a(gapbondmgr.o)
 .text.GAPBondMgr_CheckNVLen
                0x0000000000000000       0x3a E:\PD_Fan\PD_Fan\Software\EXAM\BLE\LIB\libCH57xBLE.a(gapbondmgr.o)
 .rodata.GAPBondMgr_CheckNVLen
                0x0000000000000000       0x18 E:\PD_Fan\PD_Fan\Software\EXAM\BLE\LIB\libCH57xBLE.a(gapbondmgr.o)
 .text          0x0000000000000000        0x0 E:\PD_Fan\PD_Fan\Software\EXAM\BLE\LIB\libCH57xBLE.a(peripheral.o)
 .data          0x0000000000000000        0x0 E:\PD_Fan\PD_Fan\Software\EXAM\BLE\LIB\libCH57xBLE.a(peripheral.o)
 .bss           0x0000000000000000        0x0 E:\PD_Fan\PD_Fan\Software\EXAM\BLE\LIB\libCH57xBLE.a(peripheral.o)
 .text.GAPRole_PeripheralLinkNum
                0x0000000000000000        0x8 E:\PD_Fan\PD_Fan\Software\EXAM\BLE\LIB\libCH57xBLE.a(peripheral.o)
 .text          0x0000000000000000        0x0 E:\PD_Fan\PD_Fan\Software\EXAM\BLE\LIB\libCH57xBLE.a(role.o)
 .data          0x0000000000000000        0x0 E:\PD_Fan\PD_Fan\Software\EXAM\BLE\LIB\libCH57xBLE.a(role.o)
 .bss           0x0000000000000000        0x0 E:\PD_Fan\PD_Fan\Software\EXAM\BLE\LIB\libCH57xBLE.a(role.o)
 .text.GAPRole_RegisterCentralTaskID
                0x0000000000000000       0x2e E:\PD_Fan\PD_Fan\Software\EXAM\BLE\LIB\libCH57xBLE.a(role.o)
 .text.GAPRole_ReadRssiCmd
                0x0000000000000000        0x8 E:\PD_Fan\PD_Fan\Software\EXAM\BLE\LIB\libCH57xBLE.a(role.o)
 .text.GAPRole_ObserverInit
                0x0000000000000000       0xa8 E:\PD_Fan\PD_Fan\Software\EXAM\BLE\LIB\libCH57xBLE.a(role.o)
 .text.GAPRole_BroadcasterInit
                0x0000000000000000       0xa8 E:\PD_Fan\PD_Fan\Software\EXAM\BLE\LIB\libCH57xBLE.a(role.o)
 .text.GAPRole_CentralInit
                0x0000000000000000       0xbe E:\PD_Fan\PD_Fan\Software\EXAM\BLE\LIB\libCH57xBLE.a(role.o)
 .text          0x0000000000000000        0x0 E:\PD_Fan\PD_Fan\Software\EXAM\BLE\LIB\libCH57xBLE.a(memory.o)
 .data          0x0000000000000000        0x0 E:\PD_Fan\PD_Fan\Software\EXAM\BLE\LIB\libCH57xBLE.a(memory.o)
 .bss           0x0000000000000000        0x0 E:\PD_Fan\PD_Fan\Software\EXAM\BLE\LIB\libCH57xBLE.a(memory.o)
 .text.tmos_memory_getlen
                0x0000000000000000       0x2c E:\PD_Fan\PD_Fan\Software\EXAM\BLE\LIB\libCH57xBLE.a(memory.o)
 .text.tmos_memory_get_max_block_len
                0x0000000000000000       0x30 E:\PD_Fan\PD_Fan\Software\EXAM\BLE\LIB\libCH57xBLE.a(memory.o)
 .text          0x0000000000000000        0x0 E:\PD_Fan\PD_Fan\Software\EXAM\BLE\LIB\libCH57xBLE.a(att_server.o)
 .data          0x0000000000000000        0x0 E:\PD_Fan\PD_Fan\Software\EXAM\BLE\LIB\libCH57xBLE.a(att_server.o)
 .bss           0x0000000000000000        0x0 E:\PD_Fan\PD_Fan\Software\EXAM\BLE\LIB\libCH57xBLE.a(att_server.o)
 .text.ATT_ParseHandleValueCfm
                0x0000000000000000        0xa E:\PD_Fan\PD_Fan\Software\EXAM\BLE\LIB\libCH57xBLE.a(att_server.o)
 .text          0x0000000000000000        0x0 E:\PD_Fan\PD_Fan\Software\EXAM\BLE\LIB\libCH57xBLE.a(ll.o)
 .data          0x0000000000000000        0x0 E:\PD_Fan\PD_Fan\Software\EXAM\BLE\LIB\libCH57xBLE.a(ll.o)
 .bss           0x0000000000000000        0x0 E:\PD_Fan\PD_Fan\Software\EXAM\BLE\LIB\libCH57xBLE.a(ll.o)
 .text          0x0000000000000000        0x0 E:\PD_Fan\PD_Fan\Software\EXAM\BLE\LIB\libCH57xBLE.a(ll_advertise.o)
 .data          0x0000000000000000        0x0 E:\PD_Fan\PD_Fan\Software\EXAM\BLE\LIB\libCH57xBLE.a(ll_advertise.o)
 .bss           0x0000000000000000        0x0 E:\PD_Fan\PD_Fan\Software\EXAM\BLE\LIB\libCH57xBLE.a(ll_advertise.o)
 .text.LL_AdvertiseShut
                0x0000000000000000       0x2c E:\PD_Fan\PD_Fan\Software\EXAM\BLE\LIB\libCH57xBLE.a(ll_advertise.o)
 .text.LL_AdvertiseEventRegister
                0x0000000000000000        0xa E:\PD_Fan\PD_Fan\Software\EXAM\BLE\LIB\libCH57xBLE.a(ll_advertise.o)
 .text          0x0000000000000000        0x0 E:\PD_Fan\PD_Fan\Software\EXAM\BLE\LIB\libCH57xBLE.a(ll_initiate.o)
 .data          0x0000000000000000        0x0 E:\PD_Fan\PD_Fan\Software\EXAM\BLE\LIB\libCH57xBLE.a(ll_initiate.o)
 .bss           0x0000000000000000        0x0 E:\PD_Fan\PD_Fan\Software\EXAM\BLE\LIB\libCH57xBLE.a(ll_initiate.o)
 .text.llInitiateStart
                0x0000000000000000       0x86 E:\PD_Fan\PD_Fan\Software\EXAM\BLE\LIB\libCH57xBLE.a(ll_initiate.o)
 .text.llInitiateTraverseaChannel
                0x0000000000000000       0xea E:\PD_Fan\PD_Fan\Software\EXAM\BLE\LIB\libCH57xBLE.a(ll_initiate.o)
 .text.llInitiateSet
                0x0000000000000000      0x188 E:\PD_Fan\PD_Fan\Software\EXAM\BLE\LIB\libCH57xBLE.a(ll_initiate.o)
 .text.llInitiateCreateCore
                0x0000000000000000       0x72 E:\PD_Fan\PD_Fan\Software\EXAM\BLE\LIB\libCH57xBLE.a(ll_initiate.o)
 .text.ll_initiate_filter
                0x0000000000000000      0x192 E:\PD_Fan\PD_Fan\Software\EXAM\BLE\LIB\libCH57xBLE.a(ll_initiate.o)
 .text.ll_initiate_process
                0x0000000000000000      0x518 E:\PD_Fan\PD_Fan\Software\EXAM\BLE\LIB\libCH57xBLE.a(ll_initiate.o)
 .text.LL_InitiateShut
                0x0000000000000000       0xa6 E:\PD_Fan\PD_Fan\Software\EXAM\BLE\LIB\libCH57xBLE.a(ll_initiate.o)
 .text.LL_InitiateEnable
                0x0000000000000000       0x22 E:\PD_Fan\PD_Fan\Software\EXAM\BLE\LIB\libCH57xBLE.a(ll_initiate.o)
 .text          0x0000000000000000        0x0 E:\PD_Fan\PD_Fan\Software\EXAM\BLE\LIB\libCH57xBLE.a(ll_resolvinglist.o)
 .data          0x0000000000000000        0x0 E:\PD_Fan\PD_Fan\Software\EXAM\BLE\LIB\libCH57xBLE.a(ll_resolvinglist.o)
 .bss           0x0000000000000000        0x0 E:\PD_Fan\PD_Fan\Software\EXAM\BLE\LIB\libCH57xBLE.a(ll_resolvinglist.o)
 .text.LL_ResolvinglistRemove
                0x0000000000000000       0xae E:\PD_Fan\PD_Fan\Software\EXAM\BLE\LIB\libCH57xBLE.a(ll_resolvinglist.o)
 .text.LL_ResolvinglistLocalRpaAddressGetIrk
                0x0000000000000000       0x40 E:\PD_Fan\PD_Fan\Software\EXAM\BLE\LIB\libCH57xBLE.a(ll_resolvinglist.o)
 .text.LL_ResolvinglistCheckPeerResolution
                0x0000000000000000       0x62 E:\PD_Fan\PD_Fan\Software\EXAM\BLE\LIB\libCH57xBLE.a(ll_resolvinglist.o)
 .text.LL_ResolvinglistCheckLocalResolution
                0x0000000000000000       0x62 E:\PD_Fan\PD_Fan\Software\EXAM\BLE\LIB\libCH57xBLE.a(ll_resolvinglist.o)
 .text          0x0000000000000000        0x0 E:\PD_Fan\PD_Fan\Software\EXAM\BLE\LIB\libCH57xBLE.a(central.o)
 .data          0x0000000000000000        0x0 E:\PD_Fan\PD_Fan\Software\EXAM\BLE\LIB\libCH57xBLE.a(central.o)
 .bss           0x0000000000000000        0x0 E:\PD_Fan\PD_Fan\Software\EXAM\BLE\LIB\libCH57xBLE.a(central.o)
 .text.GAPRole_CentralProcessEvent
                0x0000000000000000      0x1d4 E:\PD_Fan\PD_Fan\Software\EXAM\BLE\LIB\libCH57xBLE.a(central.o)
 .text.GAPRole_CentralStartDevice
                0x0000000000000000       0x76 E:\PD_Fan\PD_Fan\Software\EXAM\BLE\LIB\libCH57xBLE.a(central.o)
 .text.GAPRole_CentralEstablishLink
                0x0000000000000000       0x3e E:\PD_Fan\PD_Fan\Software\EXAM\BLE\LIB\libCH57xBLE.a(central.o)
 .text.GAPRole_UpdateLink
                0x0000000000000000        0xc E:\PD_Fan\PD_Fan\Software\EXAM\BLE\LIB\libCH57xBLE.a(central.o)
 .text.GAPRole_CentralStartDiscovery
                0x0000000000000000       0x30 E:\PD_Fan\PD_Fan\Software\EXAM\BLE\LIB\libCH57xBLE.a(central.o)
 .text.GAPRole_CentralCancelDiscovery
                0x0000000000000000       0x10 E:\PD_Fan\PD_Fan\Software\EXAM\BLE\LIB\libCH57xBLE.a(central.o)
 .text.GAPRole_CentralEnable
                0x0000000000000000       0xac E:\PD_Fan\PD_Fan\Software\EXAM\BLE\LIB\libCH57xBLE.a(central.o)
 .sbss.gapCentralRoleTaskId
                0x0000000000000000        0x1 E:\PD_Fan\PD_Fan\Software\EXAM\BLE\LIB\libCH57xBLE.a(central.o)
 .sbss.pGapCentralRoleCB
                0x0000000000000000        0x4 E:\PD_Fan\PD_Fan\Software\EXAM\BLE\LIB\libCH57xBLE.a(central.o)
 .comment       0x0000000000000000       0x34 E:\PD_Fan\PD_Fan\Software\EXAM\BLE\LIB\libCH57xBLE.a(central.o)
 .text          0x0000000000000000        0x0 E:\PD_Fan\PD_Fan\Software\EXAM\BLE\LIB\libCH57xBLE.a(observer.o)
 .data          0x0000000000000000        0x0 E:\PD_Fan\PD_Fan\Software\EXAM\BLE\LIB\libCH57xBLE.a(observer.o)
 .bss           0x0000000000000000        0x0 E:\PD_Fan\PD_Fan\Software\EXAM\BLE\LIB\libCH57xBLE.a(observer.o)
 .text.GAPRole_ObserverProcessEvent
                0x0000000000000000       0x86 E:\PD_Fan\PD_Fan\Software\EXAM\BLE\LIB\libCH57xBLE.a(observer.o)
 .text.GAPRole_ObserverStartDevice
                0x0000000000000000       0x2a E:\PD_Fan\PD_Fan\Software\EXAM\BLE\LIB\libCH57xBLE.a(observer.o)
 .text.GAPRole_ObserverStartDiscovery
                0x0000000000000000       0x30 E:\PD_Fan\PD_Fan\Software\EXAM\BLE\LIB\libCH57xBLE.a(observer.o)
 .text.GAPRole_ObserverCancelDiscovery
                0x0000000000000000       0x10 E:\PD_Fan\PD_Fan\Software\EXAM\BLE\LIB\libCH57xBLE.a(observer.o)
 .text.GAPRole_ObserverEnable
                0x0000000000000000       0x5a E:\PD_Fan\PD_Fan\Software\EXAM\BLE\LIB\libCH57xBLE.a(observer.o)
 .sbss.pGapObserverRoleCB
                0x0000000000000000        0x4 E:\PD_Fan\PD_Fan\Software\EXAM\BLE\LIB\libCH57xBLE.a(observer.o)
 .comment       0x0000000000000000       0x34 E:\PD_Fan\PD_Fan\Software\EXAM\BLE\LIB\libCH57xBLE.a(observer.o)
 .text          0x0000000000000000        0x0 E:\PD_Fan\PD_Fan\Software\EXAM\BLE\LIB\libCH57xBLE.a(ll_address.o)
 .data          0x0000000000000000        0x0 E:\PD_Fan\PD_Fan\Software\EXAM\BLE\LIB\libCH57xBLE.a(ll_address.o)
 .bss           0x0000000000000000        0x0 E:\PD_Fan\PD_Fan\Software\EXAM\BLE\LIB\libCH57xBLE.a(ll_address.o)
 .text.LL_AddrCreateOwnAddress
                0x0000000000000000        0x2 E:\PD_Fan\PD_Fan\Software\EXAM\BLE\LIB\libCH57xBLE.a(ll_address.o)
 .text          0x0000000000000000        0x0 c:/mounriver/mounriver_studio/toolchain/risc-v embedded gcc/bin/../lib/gcc/riscv-none-embed/8.2.0/rv32imac/ilp32\libgcc.a(_lshrdi3.o)
 .data          0x0000000000000000        0x0 c:/mounriver/mounriver_studio/toolchain/risc-v embedded gcc/bin/../lib/gcc/riscv-none-embed/8.2.0/rv32imac/ilp32\libgcc.a(_lshrdi3.o)
 .bss           0x0000000000000000        0x0 c:/mounriver/mounriver_studio/toolchain/risc-v embedded gcc/bin/../lib/gcc/riscv-none-embed/8.2.0/rv32imac/ilp32\libgcc.a(_lshrdi3.o)
 .text          0x0000000000000000        0x0 c:/mounriver/mounriver_studio/toolchain/risc-v embedded gcc/bin/../lib/gcc/riscv-none-embed/8.2.0/rv32imac/ilp32\libgcc.a(_ashrdi3.o)
 .data          0x0000000000000000        0x0 c:/mounriver/mounriver_studio/toolchain/risc-v embedded gcc/bin/../lib/gcc/riscv-none-embed/8.2.0/rv32imac/ilp32\libgcc.a(_ashrdi3.o)
 .bss           0x0000000000000000        0x0 c:/mounriver/mounriver_studio/toolchain/risc-v embedded gcc/bin/../lib/gcc/riscv-none-embed/8.2.0/rv32imac/ilp32\libgcc.a(_ashrdi3.o)
 .text.__ashrdi3
                0x0000000000000000       0x2e c:/mounriver/mounriver_studio/toolchain/risc-v embedded gcc/bin/../lib/gcc/riscv-none-embed/8.2.0/rv32imac/ilp32\libgcc.a(_ashrdi3.o)
 .debug_frame   0x0000000000000000       0x20 c:/mounriver/mounriver_studio/toolchain/risc-v embedded gcc/bin/../lib/gcc/riscv-none-embed/8.2.0/rv32imac/ilp32\libgcc.a(_ashrdi3.o)
 .text          0x0000000000000000        0x0 c:/mounriver/mounriver_studio/toolchain/risc-v embedded gcc/bin/../lib/gcc/riscv-none-embed/8.2.0/rv32imac/ilp32\libgcc.a(_divdi3.o)
 .data          0x0000000000000000        0x0 c:/mounriver/mounriver_studio/toolchain/risc-v embedded gcc/bin/../lib/gcc/riscv-none-embed/8.2.0/rv32imac/ilp32\libgcc.a(_divdi3.o)
 .bss           0x0000000000000000        0x0 c:/mounriver/mounriver_studio/toolchain/risc-v embedded gcc/bin/../lib/gcc/riscv-none-embed/8.2.0/rv32imac/ilp32\libgcc.a(_divdi3.o)
 .text.__divdi3
                0x0000000000000000      0x3d8 c:/mounriver/mounriver_studio/toolchain/risc-v embedded gcc/bin/../lib/gcc/riscv-none-embed/8.2.0/rv32imac/ilp32\libgcc.a(_divdi3.o)
 .eh_frame      0x0000000000000000       0x28 c:/mounriver/mounriver_studio/toolchain/risc-v embedded gcc/bin/../lib/gcc/riscv-none-embed/8.2.0/rv32imac/ilp32\libgcc.a(_divdi3.o)
 .text          0x0000000000000000        0x0 c:/mounriver/mounriver_studio/toolchain/risc-v embedded gcc/bin/../lib/gcc/riscv-none-embed/8.2.0/rv32imac/ilp32\libgcc.a(_udivdi3.o)
 .data          0x0000000000000000        0x0 c:/mounriver/mounriver_studio/toolchain/risc-v embedded gcc/bin/../lib/gcc/riscv-none-embed/8.2.0/rv32imac/ilp32\libgcc.a(_udivdi3.o)
 .bss           0x0000000000000000        0x0 c:/mounriver/mounriver_studio/toolchain/risc-v embedded gcc/bin/../lib/gcc/riscv-none-embed/8.2.0/rv32imac/ilp32\libgcc.a(_udivdi3.o)
 .eh_frame      0x0000000000000000       0x28 c:/mounriver/mounriver_studio/toolchain/risc-v embedded gcc/bin/../lib/gcc/riscv-none-embed/8.2.0/rv32imac/ilp32\libgcc.a(_udivdi3.o)
 .text          0x0000000000000000        0x0 c:/mounriver/mounriver_studio/toolchain/risc-v embedded gcc/bin/../lib/gcc/riscv-none-embed/8.2.0/rv32imac/ilp32\libgcc.a(muldf3.o)
 .data          0x0000000000000000        0x0 c:/mounriver/mounriver_studio/toolchain/risc-v embedded gcc/bin/../lib/gcc/riscv-none-embed/8.2.0/rv32imac/ilp32\libgcc.a(muldf3.o)
 .bss           0x0000000000000000        0x0 c:/mounriver/mounriver_studio/toolchain/risc-v embedded gcc/bin/../lib/gcc/riscv-none-embed/8.2.0/rv32imac/ilp32\libgcc.a(muldf3.o)
 .text          0x0000000000000000        0x0 c:/mounriver/mounriver_studio/toolchain/risc-v embedded gcc/bin/../lib/gcc/riscv-none-embed/8.2.0/rv32imac/ilp32\libgcc.a(floatsidf.o)
 .data          0x0000000000000000        0x0 c:/mounriver/mounriver_studio/toolchain/risc-v embedded gcc/bin/../lib/gcc/riscv-none-embed/8.2.0/rv32imac/ilp32\libgcc.a(floatsidf.o)
 .bss           0x0000000000000000        0x0 c:/mounriver/mounriver_studio/toolchain/risc-v embedded gcc/bin/../lib/gcc/riscv-none-embed/8.2.0/rv32imac/ilp32\libgcc.a(floatsidf.o)
 .text          0x0000000000000000        0x0 c:/mounriver/mounriver_studio/toolchain/risc-v embedded gcc/bin/../lib/gcc/riscv-none-embed/8.2.0/rv32imac/ilp32\libgcc.a(mulsf3.o)
 .data          0x0000000000000000        0x0 c:/mounriver/mounriver_studio/toolchain/risc-v embedded gcc/bin/../lib/gcc/riscv-none-embed/8.2.0/rv32imac/ilp32\libgcc.a(mulsf3.o)
 .bss           0x0000000000000000        0x0 c:/mounriver/mounriver_studio/toolchain/risc-v embedded gcc/bin/../lib/gcc/riscv-none-embed/8.2.0/rv32imac/ilp32\libgcc.a(mulsf3.o)
 .text          0x0000000000000000        0x0 c:/mounriver/mounriver_studio/toolchain/risc-v embedded gcc/bin/../lib/gcc/riscv-none-embed/8.2.0/rv32imac/ilp32\libgcc.a(fixsfsi.o)
 .data          0x0000000000000000        0x0 c:/mounriver/mounriver_studio/toolchain/risc-v embedded gcc/bin/../lib/gcc/riscv-none-embed/8.2.0/rv32imac/ilp32\libgcc.a(fixsfsi.o)
 .bss           0x0000000000000000        0x0 c:/mounriver/mounriver_studio/toolchain/risc-v embedded gcc/bin/../lib/gcc/riscv-none-embed/8.2.0/rv32imac/ilp32\libgcc.a(fixsfsi.o)
 .text          0x0000000000000000        0x0 c:/mounriver/mounriver_studio/toolchain/risc-v embedded gcc/bin/../lib/gcc/riscv-none-embed/8.2.0/rv32imac/ilp32\libgcc.a(fixunssfsi.o)
 .data          0x0000000000000000        0x0 c:/mounriver/mounriver_studio/toolchain/risc-v embedded gcc/bin/../lib/gcc/riscv-none-embed/8.2.0/rv32imac/ilp32\libgcc.a(fixunssfsi.o)
 .bss           0x0000000000000000        0x0 c:/mounriver/mounriver_studio/toolchain/risc-v embedded gcc/bin/../lib/gcc/riscv-none-embed/8.2.0/rv32imac/ilp32\libgcc.a(fixunssfsi.o)
 .text          0x0000000000000000        0x0 c:/mounriver/mounriver_studio/toolchain/risc-v embedded gcc/bin/../lib/gcc/riscv-none-embed/8.2.0/rv32imac/ilp32\libgcc.a(floatsisf.o)
 .data          0x0000000000000000        0x0 c:/mounriver/mounriver_studio/toolchain/risc-v embedded gcc/bin/../lib/gcc/riscv-none-embed/8.2.0/rv32imac/ilp32\libgcc.a(floatsisf.o)
 .bss           0x0000000000000000        0x0 c:/mounriver/mounriver_studio/toolchain/risc-v embedded gcc/bin/../lib/gcc/riscv-none-embed/8.2.0/rv32imac/ilp32\libgcc.a(floatsisf.o)
 .text          0x0000000000000000        0x0 c:/mounriver/mounriver_studio/toolchain/risc-v embedded gcc/bin/../lib/gcc/riscv-none-embed/8.2.0/rv32imac/ilp32\libgcc.a(truncdfsf2.o)
 .data          0x0000000000000000        0x0 c:/mounriver/mounriver_studio/toolchain/risc-v embedded gcc/bin/../lib/gcc/riscv-none-embed/8.2.0/rv32imac/ilp32\libgcc.a(truncdfsf2.o)
 .bss           0x0000000000000000        0x0 c:/mounriver/mounriver_studio/toolchain/risc-v embedded gcc/bin/../lib/gcc/riscv-none-embed/8.2.0/rv32imac/ilp32\libgcc.a(truncdfsf2.o)
 .text          0x0000000000000000        0x0 c:/mounriver/mounriver_studio/toolchain/risc-v embedded gcc/bin/../lib/gcc/riscv-none-embed/8.2.0/rv32imac/ilp32\libgcc.a(_clz.o)
 .data          0x0000000000000000        0x0 c:/mounriver/mounriver_studio/toolchain/risc-v embedded gcc/bin/../lib/gcc/riscv-none-embed/8.2.0/rv32imac/ilp32\libgcc.a(_clz.o)
 .bss           0x0000000000000000        0x0 c:/mounriver/mounriver_studio/toolchain/risc-v embedded gcc/bin/../lib/gcc/riscv-none-embed/8.2.0/rv32imac/ilp32\libgcc.a(_clz.o)
 .text          0x0000000000000000        0x0 c:/mounriver/mounriver_studio/toolchain/risc-v embedded gcc/bin/../lib/gcc/riscv-none-embed/8.2.0/rv32imac/ilp32\libgcc.a(_clzsi2.o)
 .data          0x0000000000000000        0x0 c:/mounriver/mounriver_studio/toolchain/risc-v embedded gcc/bin/../lib/gcc/riscv-none-embed/8.2.0/rv32imac/ilp32\libgcc.a(_clzsi2.o)
 .bss           0x0000000000000000        0x0 c:/mounriver/mounriver_studio/toolchain/risc-v embedded gcc/bin/../lib/gcc/riscv-none-embed/8.2.0/rv32imac/ilp32\libgcc.a(_clzsi2.o)
 .text          0x0000000000000000        0x0 c:/mounriver/mounriver_studio/toolchain/risc-v embedded gcc/bin/../lib/gcc/riscv-none-embed/8.2.0/../../../../riscv-none-embed/lib/rv32imac/ilp32\libg_nano.a(lib_a-memcpy.o)
 .data          0x0000000000000000        0x0 c:/mounriver/mounriver_studio/toolchain/risc-v embedded gcc/bin/../lib/gcc/riscv-none-embed/8.2.0/../../../../riscv-none-embed/lib/rv32imac/ilp32\libg_nano.a(lib_a-memcpy.o)
 .bss           0x0000000000000000        0x0 c:/mounriver/mounriver_studio/toolchain/risc-v embedded gcc/bin/../lib/gcc/riscv-none-embed/8.2.0/../../../../riscv-none-embed/lib/rv32imac/ilp32\libg_nano.a(lib_a-memcpy.o)
 .data          0x0000000000000000        0x0 c:/mounriver/mounriver_studio/toolchain/risc-v embedded gcc/bin/../lib/gcc/riscv-none-embed/8.2.0/../../../../riscv-none-embed/lib/rv32imac/ilp32\libg_nano.a(lib_a-memset.o)
 .bss           0x0000000000000000        0x0 c:/mounriver/mounriver_studio/toolchain/risc-v embedded gcc/bin/../lib/gcc/riscv-none-embed/8.2.0/../../../../riscv-none-embed/lib/rv32imac/ilp32\libg_nano.a(lib_a-memset.o)
 .text          0x0000000000000000        0x0 c:/mounriver/mounriver_studio/toolchain/risc-v embedded gcc/bin/../lib/gcc/riscv-none-embed/8.2.0/../../../../riscv-none-embed/lib/rv32imac/ilp32\libg_nano.a(lib_a-printf.o)
 .data          0x0000000000000000        0x0 c:/mounriver/mounriver_studio/toolchain/risc-v embedded gcc/bin/../lib/gcc/riscv-none-embed/8.2.0/../../../../riscv-none-embed/lib/rv32imac/ilp32\libg_nano.a(lib_a-printf.o)
 .bss           0x0000000000000000        0x0 c:/mounriver/mounriver_studio/toolchain/risc-v embedded gcc/bin/../lib/gcc/riscv-none-embed/8.2.0/../../../../riscv-none-embed/lib/rv32imac/ilp32\libg_nano.a(lib_a-printf.o)
 .text._printf_r
                0x0000000000000000       0x40 c:/mounriver/mounriver_studio/toolchain/risc-v embedded gcc/bin/../lib/gcc/riscv-none-embed/8.2.0/../../../../riscv-none-embed/lib/rv32imac/ilp32\libg_nano.a(lib_a-printf.o)
 .text          0x0000000000000000        0x0 c:/mounriver/mounriver_studio/toolchain/risc-v embedded gcc/bin/../lib/gcc/riscv-none-embed/8.2.0/../../../../riscv-none-embed/lib/rv32imac/ilp32\libg_nano.a(lib_a-puts.o)
 .data          0x0000000000000000        0x0 c:/mounriver/mounriver_studio/toolchain/risc-v embedded gcc/bin/../lib/gcc/riscv-none-embed/8.2.0/../../../../riscv-none-embed/lib/rv32imac/ilp32\libg_nano.a(lib_a-puts.o)
 .bss           0x0000000000000000        0x0 c:/mounriver/mounriver_studio/toolchain/risc-v embedded gcc/bin/../lib/gcc/riscv-none-embed/8.2.0/../../../../riscv-none-embed/lib/rv32imac/ilp32\libg_nano.a(lib_a-puts.o)
 .text          0x0000000000000000        0x0 c:/mounriver/mounriver_studio/toolchain/risc-v embedded gcc/bin/../lib/gcc/riscv-none-embed/8.2.0/../../../../riscv-none-embed/lib/rv32imac/ilp32\libg_nano.a(lib_a-vsprintf.o)
 .data          0x0000000000000000        0x0 c:/mounriver/mounriver_studio/toolchain/risc-v embedded gcc/bin/../lib/gcc/riscv-none-embed/8.2.0/../../../../riscv-none-embed/lib/rv32imac/ilp32\libg_nano.a(lib_a-vsprintf.o)
 .bss           0x0000000000000000        0x0 c:/mounriver/mounriver_studio/toolchain/risc-v embedded gcc/bin/../lib/gcc/riscv-none-embed/8.2.0/../../../../riscv-none-embed/lib/rv32imac/ilp32\libg_nano.a(lib_a-vsprintf.o)
 .text          0x0000000000000000        0x0 c:/mounriver/mounriver_studio/toolchain/risc-v embedded gcc/bin/../lib/gcc/riscv-none-embed/8.2.0/../../../../riscv-none-embed/lib/rv32imac/ilp32\libg_nano.a(lib_a-wbuf.o)
 .data          0x0000000000000000        0x0 c:/mounriver/mounriver_studio/toolchain/risc-v embedded gcc/bin/../lib/gcc/riscv-none-embed/8.2.0/../../../../riscv-none-embed/lib/rv32imac/ilp32\libg_nano.a(lib_a-wbuf.o)
 .bss           0x0000000000000000        0x0 c:/mounriver/mounriver_studio/toolchain/risc-v embedded gcc/bin/../lib/gcc/riscv-none-embed/8.2.0/../../../../riscv-none-embed/lib/rv32imac/ilp32\libg_nano.a(lib_a-wbuf.o)
 .text.__swbuf  0x0000000000000000       0x16 c:/mounriver/mounriver_studio/toolchain/risc-v embedded gcc/bin/../lib/gcc/riscv-none-embed/8.2.0/../../../../riscv-none-embed/lib/rv32imac/ilp32\libg_nano.a(lib_a-wbuf.o)
 .text          0x0000000000000000        0x0 c:/mounriver/mounriver_studio/toolchain/risc-v embedded gcc/bin/../lib/gcc/riscv-none-embed/8.2.0/../../../../riscv-none-embed/lib/rv32imac/ilp32\libg_nano.a(lib_a-wsetup.o)
 .data          0x0000000000000000        0x0 c:/mounriver/mounriver_studio/toolchain/risc-v embedded gcc/bin/../lib/gcc/riscv-none-embed/8.2.0/../../../../riscv-none-embed/lib/rv32imac/ilp32\libg_nano.a(lib_a-wsetup.o)
 .bss           0x0000000000000000        0x0 c:/mounriver/mounriver_studio/toolchain/risc-v embedded gcc/bin/../lib/gcc/riscv-none-embed/8.2.0/../../../../riscv-none-embed/lib/rv32imac/ilp32\libg_nano.a(lib_a-wsetup.o)
 .text          0x0000000000000000        0x0 c:/mounriver/mounriver_studio/toolchain/risc-v embedded gcc/bin/../lib/gcc/riscv-none-embed/8.2.0/../../../../riscv-none-embed/lib/rv32imac/ilp32\libg_nano.a(lib_a-fflush.o)
 .data          0x0000000000000000        0x0 c:/mounriver/mounriver_studio/toolchain/risc-v embedded gcc/bin/../lib/gcc/riscv-none-embed/8.2.0/../../../../riscv-none-embed/lib/rv32imac/ilp32\libg_nano.a(lib_a-fflush.o)
 .bss           0x0000000000000000        0x0 c:/mounriver/mounriver_studio/toolchain/risc-v embedded gcc/bin/../lib/gcc/riscv-none-embed/8.2.0/../../../../riscv-none-embed/lib/rv32imac/ilp32\libg_nano.a(lib_a-fflush.o)
 .text.fflush   0x0000000000000000       0x30 c:/mounriver/mounriver_studio/toolchain/risc-v embedded gcc/bin/../lib/gcc/riscv-none-embed/8.2.0/../../../../riscv-none-embed/lib/rv32imac/ilp32\libg_nano.a(lib_a-fflush.o)
 .text          0x0000000000000000        0x0 c:/mounriver/mounriver_studio/toolchain/risc-v embedded gcc/bin/../lib/gcc/riscv-none-embed/8.2.0/../../../../riscv-none-embed/lib/rv32imac/ilp32\libg_nano.a(lib_a-findfp.o)
 .data          0x0000000000000000        0x0 c:/mounriver/mounriver_studio/toolchain/risc-v embedded gcc/bin/../lib/gcc/riscv-none-embed/8.2.0/../../../../riscv-none-embed/lib/rv32imac/ilp32\libg_nano.a(lib_a-findfp.o)
 .bss           0x0000000000000000        0x0 c:/mounriver/mounriver_studio/toolchain/risc-v embedded gcc/bin/../lib/gcc/riscv-none-embed/8.2.0/../../../../riscv-none-embed/lib/rv32imac/ilp32\libg_nano.a(lib_a-findfp.o)
 .text.__fp_lock
                0x0000000000000000        0x4 c:/mounriver/mounriver_studio/toolchain/risc-v embedded gcc/bin/../lib/gcc/riscv-none-embed/8.2.0/../../../../riscv-none-embed/lib/rv32imac/ilp32\libg_nano.a(lib_a-findfp.o)
 .text.__fp_unlock
                0x0000000000000000        0x4 c:/mounriver/mounriver_studio/toolchain/risc-v embedded gcc/bin/../lib/gcc/riscv-none-embed/8.2.0/../../../../riscv-none-embed/lib/rv32imac/ilp32\libg_nano.a(lib_a-findfp.o)
 .text._cleanup
                0x0000000000000000       0x12 c:/mounriver/mounriver_studio/toolchain/risc-v embedded gcc/bin/../lib/gcc/riscv-none-embed/8.2.0/../../../../riscv-none-embed/lib/rv32imac/ilp32\libg_nano.a(lib_a-findfp.o)
 .text.__sfp_lock_acquire
                0x0000000000000000        0x2 c:/mounriver/mounriver_studio/toolchain/risc-v embedded gcc/bin/../lib/gcc/riscv-none-embed/8.2.0/../../../../riscv-none-embed/lib/rv32imac/ilp32\libg_nano.a(lib_a-findfp.o)
 .text.__sfp_lock_release
                0x0000000000000000        0x2 c:/mounriver/mounriver_studio/toolchain/risc-v embedded gcc/bin/../lib/gcc/riscv-none-embed/8.2.0/../../../../riscv-none-embed/lib/rv32imac/ilp32\libg_nano.a(lib_a-findfp.o)
 .text.__sinit_lock_acquire
                0x0000000000000000        0x2 c:/mounriver/mounriver_studio/toolchain/risc-v embedded gcc/bin/../lib/gcc/riscv-none-embed/8.2.0/../../../../riscv-none-embed/lib/rv32imac/ilp32\libg_nano.a(lib_a-findfp.o)
 .text.__sinit_lock_release
                0x0000000000000000        0x2 c:/mounriver/mounriver_studio/toolchain/risc-v embedded gcc/bin/../lib/gcc/riscv-none-embed/8.2.0/../../../../riscv-none-embed/lib/rv32imac/ilp32\libg_nano.a(lib_a-findfp.o)
 .text.__fp_lock_all
                0x0000000000000000       0x1a c:/mounriver/mounriver_studio/toolchain/risc-v embedded gcc/bin/../lib/gcc/riscv-none-embed/8.2.0/../../../../riscv-none-embed/lib/rv32imac/ilp32\libg_nano.a(lib_a-findfp.o)
 .text.__fp_unlock_all
                0x0000000000000000       0x1a c:/mounriver/mounriver_studio/toolchain/risc-v embedded gcc/bin/../lib/gcc/riscv-none-embed/8.2.0/../../../../riscv-none-embed/lib/rv32imac/ilp32\libg_nano.a(lib_a-findfp.o)
 .text          0x0000000000000000        0x0 c:/mounriver/mounriver_studio/toolchain/risc-v embedded gcc/bin/../lib/gcc/riscv-none-embed/8.2.0/../../../../riscv-none-embed/lib/rv32imac/ilp32\libg_nano.a(lib_a-fwalk.o)
 .data          0x0000000000000000        0x0 c:/mounriver/mounriver_studio/toolchain/risc-v embedded gcc/bin/../lib/gcc/riscv-none-embed/8.2.0/../../../../riscv-none-embed/lib/rv32imac/ilp32\libg_nano.a(lib_a-fwalk.o)
 .bss           0x0000000000000000        0x0 c:/mounriver/mounriver_studio/toolchain/risc-v embedded gcc/bin/../lib/gcc/riscv-none-embed/8.2.0/../../../../riscv-none-embed/lib/rv32imac/ilp32\libg_nano.a(lib_a-fwalk.o)
 .text._fwalk   0x0000000000000000       0x62 c:/mounriver/mounriver_studio/toolchain/risc-v embedded gcc/bin/../lib/gcc/riscv-none-embed/8.2.0/../../../../riscv-none-embed/lib/rv32imac/ilp32\libg_nano.a(lib_a-fwalk.o)
 .text          0x0000000000000000        0x0 c:/mounriver/mounriver_studio/toolchain/risc-v embedded gcc/bin/../lib/gcc/riscv-none-embed/8.2.0/../../../../riscv-none-embed/lib/rv32imac/ilp32\libg_nano.a(lib_a-impure.o)
 .data          0x0000000000000000        0x0 c:/mounriver/mounriver_studio/toolchain/risc-v embedded gcc/bin/../lib/gcc/riscv-none-embed/8.2.0/../../../../riscv-none-embed/lib/rv32imac/ilp32\libg_nano.a(lib_a-impure.o)
 .bss           0x0000000000000000        0x0 c:/mounriver/mounriver_studio/toolchain/risc-v embedded gcc/bin/../lib/gcc/riscv-none-embed/8.2.0/../../../../riscv-none-embed/lib/rv32imac/ilp32\libg_nano.a(lib_a-impure.o)
 .text          0x0000000000000000        0x0 c:/mounriver/mounriver_studio/toolchain/risc-v embedded gcc/bin/../lib/gcc/riscv-none-embed/8.2.0/../../../../riscv-none-embed/lib/rv32imac/ilp32\libg_nano.a(lib_a-makebuf.o)
 .data          0x0000000000000000        0x0 c:/mounriver/mounriver_studio/toolchain/risc-v embedded gcc/bin/../lib/gcc/riscv-none-embed/8.2.0/../../../../riscv-none-embed/lib/rv32imac/ilp32\libg_nano.a(lib_a-makebuf.o)
 .bss           0x0000000000000000        0x0 c:/mounriver/mounriver_studio/toolchain/risc-v embedded gcc/bin/../lib/gcc/riscv-none-embed/8.2.0/../../../../riscv-none-embed/lib/rv32imac/ilp32\libg_nano.a(lib_a-makebuf.o)
 .text          0x0000000000000000        0x0 c:/mounriver/mounriver_studio/toolchain/risc-v embedded gcc/bin/../lib/gcc/riscv-none-embed/8.2.0/../../../../riscv-none-embed/lib/rv32imac/ilp32\libg_nano.a(lib_a-nano-freer.o)
 .data          0x0000000000000000        0x0 c:/mounriver/mounriver_studio/toolchain/risc-v embedded gcc/bin/../lib/gcc/riscv-none-embed/8.2.0/../../../../riscv-none-embed/lib/rv32imac/ilp32\libg_nano.a(lib_a-nano-freer.o)
 .bss           0x0000000000000000        0x0 c:/mounriver/mounriver_studio/toolchain/risc-v embedded gcc/bin/../lib/gcc/riscv-none-embed/8.2.0/../../../../riscv-none-embed/lib/rv32imac/ilp32\libg_nano.a(lib_a-nano-freer.o)
 .text          0x0000000000000000        0x0 c:/mounriver/mounriver_studio/toolchain/risc-v embedded gcc/bin/../lib/gcc/riscv-none-embed/8.2.0/../../../../riscv-none-embed/lib/rv32imac/ilp32\libg_nano.a(lib_a-nano-mallocr.o)
 .data          0x0000000000000000        0x0 c:/mounriver/mounriver_studio/toolchain/risc-v embedded gcc/bin/../lib/gcc/riscv-none-embed/8.2.0/../../../../riscv-none-embed/lib/rv32imac/ilp32\libg_nano.a(lib_a-nano-mallocr.o)
 .bss           0x0000000000000000        0x0 c:/mounriver/mounriver_studio/toolchain/risc-v embedded gcc/bin/../lib/gcc/riscv-none-embed/8.2.0/../../../../riscv-none-embed/lib/rv32imac/ilp32\libg_nano.a(lib_a-nano-mallocr.o)
 .text          0x0000000000000000        0x0 c:/mounriver/mounriver_studio/toolchain/risc-v embedded gcc/bin/../lib/gcc/riscv-none-embed/8.2.0/../../../../riscv-none-embed/lib/rv32imac/ilp32\libg_nano.a(lib_a-nano-svfprintf.o)
 .data          0x0000000000000000        0x0 c:/mounriver/mounriver_studio/toolchain/risc-v embedded gcc/bin/../lib/gcc/riscv-none-embed/8.2.0/../../../../riscv-none-embed/lib/rv32imac/ilp32\libg_nano.a(lib_a-nano-svfprintf.o)
 .bss           0x0000000000000000        0x0 c:/mounriver/mounriver_studio/toolchain/risc-v embedded gcc/bin/../lib/gcc/riscv-none-embed/8.2.0/../../../../riscv-none-embed/lib/rv32imac/ilp32\libg_nano.a(lib_a-nano-svfprintf.o)
 .text.__ssprint_r
                0x0000000000000000      0x148 c:/mounriver/mounriver_studio/toolchain/risc-v embedded gcc/bin/../lib/gcc/riscv-none-embed/8.2.0/../../../../riscv-none-embed/lib/rv32imac/ilp32\libg_nano.a(lib_a-nano-svfprintf.o)
 .text          0x0000000000000000        0x0 c:/mounriver/mounriver_studio/toolchain/risc-v embedded gcc/bin/../lib/gcc/riscv-none-embed/8.2.0/../../../../riscv-none-embed/lib/rv32imac/ilp32\libg_nano.a(lib_a-nano-vfprintf.o)
 .data          0x0000000000000000        0x0 c:/mounriver/mounriver_studio/toolchain/risc-v embedded gcc/bin/../lib/gcc/riscv-none-embed/8.2.0/../../../../riscv-none-embed/lib/rv32imac/ilp32\libg_nano.a(lib_a-nano-vfprintf.o)
 .bss           0x0000000000000000        0x0 c:/mounriver/mounriver_studio/toolchain/risc-v embedded gcc/bin/../lib/gcc/riscv-none-embed/8.2.0/../../../../riscv-none-embed/lib/rv32imac/ilp32\libg_nano.a(lib_a-nano-vfprintf.o)
 .text.__sprint_r
                0x0000000000000000       0x2c c:/mounriver/mounriver_studio/toolchain/risc-v embedded gcc/bin/../lib/gcc/riscv-none-embed/8.2.0/../../../../riscv-none-embed/lib/rv32imac/ilp32\libg_nano.a(lib_a-nano-vfprintf.o)
 .text.vfprintf
                0x0000000000000000       0x18 c:/mounriver/mounriver_studio/toolchain/risc-v embedded gcc/bin/../lib/gcc/riscv-none-embed/8.2.0/../../../../riscv-none-embed/lib/rv32imac/ilp32\libg_nano.a(lib_a-nano-vfprintf.o)
 .text          0x0000000000000000        0x0 c:/mounriver/mounriver_studio/toolchain/risc-v embedded gcc/bin/../lib/gcc/riscv-none-embed/8.2.0/../../../../riscv-none-embed/lib/rv32imac/ilp32\libg_nano.a(lib_a-nano-vfprintf_i.o)
 .data          0x0000000000000000        0x0 c:/mounriver/mounriver_studio/toolchain/risc-v embedded gcc/bin/../lib/gcc/riscv-none-embed/8.2.0/../../../../riscv-none-embed/lib/rv32imac/ilp32\libg_nano.a(lib_a-nano-vfprintf_i.o)
 .bss           0x0000000000000000        0x0 c:/mounriver/mounriver_studio/toolchain/risc-v embedded gcc/bin/../lib/gcc/riscv-none-embed/8.2.0/../../../../riscv-none-embed/lib/rv32imac/ilp32\libg_nano.a(lib_a-nano-vfprintf_i.o)
 .text          0x0000000000000000        0x0 c:/mounriver/mounriver_studio/toolchain/risc-v embedded gcc/bin/../lib/gcc/riscv-none-embed/8.2.0/../../../../riscv-none-embed/lib/rv32imac/ilp32\libg_nano.a(lib_a-sbrkr.o)
 .data          0x0000000000000000        0x0 c:/mounriver/mounriver_studio/toolchain/risc-v embedded gcc/bin/../lib/gcc/riscv-none-embed/8.2.0/../../../../riscv-none-embed/lib/rv32imac/ilp32\libg_nano.a(lib_a-sbrkr.o)
 .bss           0x0000000000000000        0x0 c:/mounriver/mounriver_studio/toolchain/risc-v embedded gcc/bin/../lib/gcc/riscv-none-embed/8.2.0/../../../../riscv-none-embed/lib/rv32imac/ilp32\libg_nano.a(lib_a-sbrkr.o)
 .text          0x0000000000000000        0x0 c:/mounriver/mounriver_studio/toolchain/risc-v embedded gcc/bin/../lib/gcc/riscv-none-embed/8.2.0/../../../../riscv-none-embed/lib/rv32imac/ilp32\libg_nano.a(lib_a-stdio.o)
 .data          0x0000000000000000        0x0 c:/mounriver/mounriver_studio/toolchain/risc-v embedded gcc/bin/../lib/gcc/riscv-none-embed/8.2.0/../../../../riscv-none-embed/lib/rv32imac/ilp32\libg_nano.a(lib_a-stdio.o)
 .bss           0x0000000000000000        0x0 c:/mounriver/mounriver_studio/toolchain/risc-v embedded gcc/bin/../lib/gcc/riscv-none-embed/8.2.0/../../../../riscv-none-embed/lib/rv32imac/ilp32\libg_nano.a(lib_a-stdio.o)
 .text.__seofread
                0x0000000000000000        0x4 c:/mounriver/mounriver_studio/toolchain/risc-v embedded gcc/bin/../lib/gcc/riscv-none-embed/8.2.0/../../../../riscv-none-embed/lib/rv32imac/ilp32\libg_nano.a(lib_a-stdio.o)
 .text          0x0000000000000000        0x0 c:/mounriver/mounriver_studio/toolchain/risc-v embedded gcc/bin/../lib/gcc/riscv-none-embed/8.2.0/../../../../riscv-none-embed/lib/rv32imac/ilp32\libg_nano.a(lib_a-writer.o)
 .data          0x0000000000000000        0x0 c:/mounriver/mounriver_studio/toolchain/risc-v embedded gcc/bin/../lib/gcc/riscv-none-embed/8.2.0/../../../../riscv-none-embed/lib/rv32imac/ilp32\libg_nano.a(lib_a-writer.o)
 .bss           0x0000000000000000        0x0 c:/mounriver/mounriver_studio/toolchain/risc-v embedded gcc/bin/../lib/gcc/riscv-none-embed/8.2.0/../../../../riscv-none-embed/lib/rv32imac/ilp32\libg_nano.a(lib_a-writer.o)
 .text          0x0000000000000000        0x0 c:/mounriver/mounriver_studio/toolchain/risc-v embedded gcc/bin/../lib/gcc/riscv-none-embed/8.2.0/../../../../riscv-none-embed/lib/rv32imac/ilp32\libg_nano.a(lib_a-closer.o)
 .data          0x0000000000000000        0x0 c:/mounriver/mounriver_studio/toolchain/risc-v embedded gcc/bin/../lib/gcc/riscv-none-embed/8.2.0/../../../../riscv-none-embed/lib/rv32imac/ilp32\libg_nano.a(lib_a-closer.o)
 .bss           0x0000000000000000        0x0 c:/mounriver/mounriver_studio/toolchain/risc-v embedded gcc/bin/../lib/gcc/riscv-none-embed/8.2.0/../../../../riscv-none-embed/lib/rv32imac/ilp32\libg_nano.a(lib_a-closer.o)
 .text          0x0000000000000000        0x0 c:/mounriver/mounriver_studio/toolchain/risc-v embedded gcc/bin/../lib/gcc/riscv-none-embed/8.2.0/../../../../riscv-none-embed/lib/rv32imac/ilp32\libg_nano.a(lib_a-fstatr.o)
 .data          0x0000000000000000        0x0 c:/mounriver/mounriver_studio/toolchain/risc-v embedded gcc/bin/../lib/gcc/riscv-none-embed/8.2.0/../../../../riscv-none-embed/lib/rv32imac/ilp32\libg_nano.a(lib_a-fstatr.o)
 .bss           0x0000000000000000        0x0 c:/mounriver/mounriver_studio/toolchain/risc-v embedded gcc/bin/../lib/gcc/riscv-none-embed/8.2.0/../../../../riscv-none-embed/lib/rv32imac/ilp32\libg_nano.a(lib_a-fstatr.o)
 .text          0x0000000000000000        0x0 c:/mounriver/mounriver_studio/toolchain/risc-v embedded gcc/bin/../lib/gcc/riscv-none-embed/8.2.0/../../../../riscv-none-embed/lib/rv32imac/ilp32\libg_nano.a(lib_a-fvwrite.o)
 .data          0x0000000000000000        0x0 c:/mounriver/mounriver_studio/toolchain/risc-v embedded gcc/bin/../lib/gcc/riscv-none-embed/8.2.0/../../../../riscv-none-embed/lib/rv32imac/ilp32\libg_nano.a(lib_a-fvwrite.o)
 .bss           0x0000000000000000        0x0 c:/mounriver/mounriver_studio/toolchain/risc-v embedded gcc/bin/../lib/gcc/riscv-none-embed/8.2.0/../../../../riscv-none-embed/lib/rv32imac/ilp32\libg_nano.a(lib_a-fvwrite.o)
 .text.__sfvwrite_r
                0x0000000000000000      0x31a c:/mounriver/mounriver_studio/toolchain/risc-v embedded gcc/bin/../lib/gcc/riscv-none-embed/8.2.0/../../../../riscv-none-embed/lib/rv32imac/ilp32\libg_nano.a(lib_a-fvwrite.o)
 .debug_frame   0x0000000000000000       0x60 c:/mounriver/mounriver_studio/toolchain/risc-v embedded gcc/bin/../lib/gcc/riscv-none-embed/8.2.0/../../../../riscv-none-embed/lib/rv32imac/ilp32\libg_nano.a(lib_a-fvwrite.o)
 .text          0x0000000000000000        0x0 c:/mounriver/mounriver_studio/toolchain/risc-v embedded gcc/bin/../lib/gcc/riscv-none-embed/8.2.0/../../../../riscv-none-embed/lib/rv32imac/ilp32\libg_nano.a(lib_a-isattyr.o)
 .data          0x0000000000000000        0x0 c:/mounriver/mounriver_studio/toolchain/risc-v embedded gcc/bin/../lib/gcc/riscv-none-embed/8.2.0/../../../../riscv-none-embed/lib/rv32imac/ilp32\libg_nano.a(lib_a-isattyr.o)
 .bss           0x0000000000000000        0x0 c:/mounriver/mounriver_studio/toolchain/risc-v embedded gcc/bin/../lib/gcc/riscv-none-embed/8.2.0/../../../../riscv-none-embed/lib/rv32imac/ilp32\libg_nano.a(lib_a-isattyr.o)
 .text          0x0000000000000000        0x0 c:/mounriver/mounriver_studio/toolchain/risc-v embedded gcc/bin/../lib/gcc/riscv-none-embed/8.2.0/../../../../riscv-none-embed/lib/rv32imac/ilp32\libg_nano.a(lib_a-lseekr.o)
 .data          0x0000000000000000        0x0 c:/mounriver/mounriver_studio/toolchain/risc-v embedded gcc/bin/../lib/gcc/riscv-none-embed/8.2.0/../../../../riscv-none-embed/lib/rv32imac/ilp32\libg_nano.a(lib_a-lseekr.o)
 .bss           0x0000000000000000        0x0 c:/mounriver/mounriver_studio/toolchain/risc-v embedded gcc/bin/../lib/gcc/riscv-none-embed/8.2.0/../../../../riscv-none-embed/lib/rv32imac/ilp32\libg_nano.a(lib_a-lseekr.o)
 .text          0x0000000000000000        0x0 c:/mounriver/mounriver_studio/toolchain/risc-v embedded gcc/bin/../lib/gcc/riscv-none-embed/8.2.0/../../../../riscv-none-embed/lib/rv32imac/ilp32\libg_nano.a(lib_a-memchr.o)
 .data          0x0000000000000000        0x0 c:/mounriver/mounriver_studio/toolchain/risc-v embedded gcc/bin/../lib/gcc/riscv-none-embed/8.2.0/../../../../riscv-none-embed/lib/rv32imac/ilp32\libg_nano.a(lib_a-memchr.o)
 .bss           0x0000000000000000        0x0 c:/mounriver/mounriver_studio/toolchain/risc-v embedded gcc/bin/../lib/gcc/riscv-none-embed/8.2.0/../../../../riscv-none-embed/lib/rv32imac/ilp32\libg_nano.a(lib_a-memchr.o)
 .text          0x0000000000000000        0x0 c:/mounriver/mounriver_studio/toolchain/risc-v embedded gcc/bin/../lib/gcc/riscv-none-embed/8.2.0/../../../../riscv-none-embed/lib/rv32imac/ilp32\libg_nano.a(lib_a-memmove.o)
 .data          0x0000000000000000        0x0 c:/mounriver/mounriver_studio/toolchain/risc-v embedded gcc/bin/../lib/gcc/riscv-none-embed/8.2.0/../../../../riscv-none-embed/lib/rv32imac/ilp32\libg_nano.a(lib_a-memmove.o)
 .bss           0x0000000000000000        0x0 c:/mounriver/mounriver_studio/toolchain/risc-v embedded gcc/bin/../lib/gcc/riscv-none-embed/8.2.0/../../../../riscv-none-embed/lib/rv32imac/ilp32\libg_nano.a(lib_a-memmove.o)
 .text          0x0000000000000000        0x0 c:/mounriver/mounriver_studio/toolchain/risc-v embedded gcc/bin/../lib/gcc/riscv-none-embed/8.2.0/../../../../riscv-none-embed/lib/rv32imac/ilp32\libg_nano.a(lib_a-mlock.o)
 .data          0x0000000000000000        0x0 c:/mounriver/mounriver_studio/toolchain/risc-v embedded gcc/bin/../lib/gcc/riscv-none-embed/8.2.0/../../../../riscv-none-embed/lib/rv32imac/ilp32\libg_nano.a(lib_a-mlock.o)
 .bss           0x0000000000000000        0x0 c:/mounriver/mounriver_studio/toolchain/risc-v embedded gcc/bin/../lib/gcc/riscv-none-embed/8.2.0/../../../../riscv-none-embed/lib/rv32imac/ilp32\libg_nano.a(lib_a-mlock.o)
 .text          0x0000000000000000        0x0 c:/mounriver/mounriver_studio/toolchain/risc-v embedded gcc/bin/../lib/gcc/riscv-none-embed/8.2.0/../../../../riscv-none-embed/lib/rv32imac/ilp32\libg_nano.a(lib_a-nano-reallocr.o)
 .data          0x0000000000000000        0x0 c:/mounriver/mounriver_studio/toolchain/risc-v embedded gcc/bin/../lib/gcc/riscv-none-embed/8.2.0/../../../../riscv-none-embed/lib/rv32imac/ilp32\libg_nano.a(lib_a-nano-reallocr.o)
 .bss           0x0000000000000000        0x0 c:/mounriver/mounriver_studio/toolchain/risc-v embedded gcc/bin/../lib/gcc/riscv-none-embed/8.2.0/../../../../riscv-none-embed/lib/rv32imac/ilp32\libg_nano.a(lib_a-nano-reallocr.o)
 .text          0x0000000000000000        0x0 c:/mounriver/mounriver_studio/toolchain/risc-v embedded gcc/bin/../lib/gcc/riscv-none-embed/8.2.0/../../../../riscv-none-embed/lib/rv32imac/ilp32\libg_nano.a(lib_a-readr.o)
 .data          0x0000000000000000        0x0 c:/mounriver/mounriver_studio/toolchain/risc-v embedded gcc/bin/../lib/gcc/riscv-none-embed/8.2.0/../../../../riscv-none-embed/lib/rv32imac/ilp32\libg_nano.a(lib_a-readr.o)
 .bss           0x0000000000000000        0x0 c:/mounriver/mounriver_studio/toolchain/risc-v embedded gcc/bin/../lib/gcc/riscv-none-embed/8.2.0/../../../../riscv-none-embed/lib/rv32imac/ilp32\libg_nano.a(lib_a-readr.o)
 .text          0x0000000000000000        0x0 c:/mounriver/mounriver_studio/toolchain/risc-v embedded gcc/bin/../lib/gcc/riscv-none-embed/8.2.0/../../../../riscv-none-embed/lib/rv32imac/ilp32\libg_nano.a(lib_a-reent.o)
 .data          0x0000000000000000        0x0 c:/mounriver/mounriver_studio/toolchain/risc-v embedded gcc/bin/../lib/gcc/riscv-none-embed/8.2.0/../../../../riscv-none-embed/lib/rv32imac/ilp32\libg_nano.a(lib_a-reent.o)
 .bss           0x0000000000000000        0x0 c:/mounriver/mounriver_studio/toolchain/risc-v embedded gcc/bin/../lib/gcc/riscv-none-embed/8.2.0/../../../../riscv-none-embed/lib/rv32imac/ilp32\libg_nano.a(lib_a-reent.o)
 .text.cleanup_glue
                0x0000000000000000       0x2c c:/mounriver/mounriver_studio/toolchain/risc-v embedded gcc/bin/../lib/gcc/riscv-none-embed/8.2.0/../../../../riscv-none-embed/lib/rv32imac/ilp32\libg_nano.a(lib_a-reent.o)
 .text._reclaim_reent
                0x0000000000000000      0x10c c:/mounriver/mounriver_studio/toolchain/risc-v embedded gcc/bin/../lib/gcc/riscv-none-embed/8.2.0/../../../../riscv-none-embed/lib/rv32imac/ilp32\libg_nano.a(lib_a-reent.o)
 .text          0x0000000000000000        0x0 c:/mounriver/mounriver_studio/toolchain/risc-v embedded gcc/bin/../lib/gcc/riscv-none-embed/8.2.0/../../../../riscv-none-embed/lib/rv32imac/ilp32\libg_nano.a(lib_a-nano-msizer.o)
 .data          0x0000000000000000        0x0 c:/mounriver/mounriver_studio/toolchain/risc-v embedded gcc/bin/../lib/gcc/riscv-none-embed/8.2.0/../../../../riscv-none-embed/lib/rv32imac/ilp32\libg_nano.a(lib_a-nano-msizer.o)
 .bss           0x0000000000000000        0x0 c:/mounriver/mounriver_studio/toolchain/risc-v embedded gcc/bin/../lib/gcc/riscv-none-embed/8.2.0/../../../../riscv-none-embed/lib/rv32imac/ilp32\libg_nano.a(lib_a-nano-msizer.o)
 .text          0x0000000000000000        0x0 c:/mounriver/mounriver_studio/toolchain/risc-v embedded gcc/bin/../lib/gcc/riscv-none-embed/8.2.0/../../../../riscv-none-embed/lib/rv32imac/ilp32\libnosys.a(close.o)
 .data          0x0000000000000000        0x0 c:/mounriver/mounriver_studio/toolchain/risc-v embedded gcc/bin/../lib/gcc/riscv-none-embed/8.2.0/../../../../riscv-none-embed/lib/rv32imac/ilp32\libnosys.a(close.o)
 .bss           0x0000000000000000        0x0 c:/mounriver/mounriver_studio/toolchain/risc-v embedded gcc/bin/../lib/gcc/riscv-none-embed/8.2.0/../../../../riscv-none-embed/lib/rv32imac/ilp32\libnosys.a(close.o)
 .text          0x0000000000000000        0x0 c:/mounriver/mounriver_studio/toolchain/risc-v embedded gcc/bin/../lib/gcc/riscv-none-embed/8.2.0/../../../../riscv-none-embed/lib/rv32imac/ilp32\libnosys.a(fstat.o)
 .data          0x0000000000000000        0x0 c:/mounriver/mounriver_studio/toolchain/risc-v embedded gcc/bin/../lib/gcc/riscv-none-embed/8.2.0/../../../../riscv-none-embed/lib/rv32imac/ilp32\libnosys.a(fstat.o)
 .bss           0x0000000000000000        0x0 c:/mounriver/mounriver_studio/toolchain/risc-v embedded gcc/bin/../lib/gcc/riscv-none-embed/8.2.0/../../../../riscv-none-embed/lib/rv32imac/ilp32\libnosys.a(fstat.o)
 .text          0x0000000000000000        0x0 c:/mounriver/mounriver_studio/toolchain/risc-v embedded gcc/bin/../lib/gcc/riscv-none-embed/8.2.0/../../../../riscv-none-embed/lib/rv32imac/ilp32\libnosys.a(isatty.o)
 .data          0x0000000000000000        0x0 c:/mounriver/mounriver_studio/toolchain/risc-v embedded gcc/bin/../lib/gcc/riscv-none-embed/8.2.0/../../../../riscv-none-embed/lib/rv32imac/ilp32\libnosys.a(isatty.o)
 .bss           0x0000000000000000        0x0 c:/mounriver/mounriver_studio/toolchain/risc-v embedded gcc/bin/../lib/gcc/riscv-none-embed/8.2.0/../../../../riscv-none-embed/lib/rv32imac/ilp32\libnosys.a(isatty.o)
 .text          0x0000000000000000        0x0 c:/mounriver/mounriver_studio/toolchain/risc-v embedded gcc/bin/../lib/gcc/riscv-none-embed/8.2.0/../../../../riscv-none-embed/lib/rv32imac/ilp32\libnosys.a(lseek.o)
 .data          0x0000000000000000        0x0 c:/mounriver/mounriver_studio/toolchain/risc-v embedded gcc/bin/../lib/gcc/riscv-none-embed/8.2.0/../../../../riscv-none-embed/lib/rv32imac/ilp32\libnosys.a(lseek.o)
 .bss           0x0000000000000000        0x0 c:/mounriver/mounriver_studio/toolchain/risc-v embedded gcc/bin/../lib/gcc/riscv-none-embed/8.2.0/../../../../riscv-none-embed/lib/rv32imac/ilp32\libnosys.a(lseek.o)
 .text          0x0000000000000000        0x0 c:/mounriver/mounriver_studio/toolchain/risc-v embedded gcc/bin/../lib/gcc/riscv-none-embed/8.2.0/../../../../riscv-none-embed/lib/rv32imac/ilp32\libnosys.a(read.o)
 .data          0x0000000000000000        0x0 c:/mounriver/mounriver_studio/toolchain/risc-v embedded gcc/bin/../lib/gcc/riscv-none-embed/8.2.0/../../../../riscv-none-embed/lib/rv32imac/ilp32\libnosys.a(read.o)
 .bss           0x0000000000000000        0x0 c:/mounriver/mounriver_studio/toolchain/risc-v embedded gcc/bin/../lib/gcc/riscv-none-embed/8.2.0/../../../../riscv-none-embed/lib/rv32imac/ilp32\libnosys.a(read.o)
 .text          0x0000000000000000        0x0 c:/mounriver/mounriver_studio/toolchain/risc-v embedded gcc/bin/../lib/gcc/riscv-none-embed/8.2.0/../../../../riscv-none-embed/lib/rv32imac/ilp32\libnosys.a(sbrk.o)
 .data          0x0000000000000000        0x0 c:/mounriver/mounriver_studio/toolchain/risc-v embedded gcc/bin/../lib/gcc/riscv-none-embed/8.2.0/../../../../riscv-none-embed/lib/rv32imac/ilp32\libnosys.a(sbrk.o)
 .bss           0x0000000000000000        0x0 c:/mounriver/mounriver_studio/toolchain/risc-v embedded gcc/bin/../lib/gcc/riscv-none-embed/8.2.0/../../../../riscv-none-embed/lib/rv32imac/ilp32\libnosys.a(sbrk.o)

Memory Configuration

Name             Origin             Length             Attributes
FLASH            0x0000000000000000 0x0000000000070000 xr
RAM              0x0000000020003800 0x0000000000004800 xrw
*default*        0x0000000000000000 0xffffffffffffffff

Linker script and memory map

LOAD ./StdPeriphDriver/CH57x_adc.o
LOAD ./StdPeriphDriver/CH57x_clk.o
LOAD ./StdPeriphDriver/CH57x_flash.o
LOAD ./StdPeriphDriver/CH57x_gpio.o
LOAD ./StdPeriphDriver/CH57x_pwr.o
LOAD ./StdPeriphDriver/CH57x_sys.o
LOAD ./StdPeriphDriver/CH57x_timer0.o
LOAD ./StdPeriphDriver/CH57x_timer1.o
LOAD ./StdPeriphDriver/CH57x_timer2.o
LOAD ./StdPeriphDriver/CH57x_uart1.o
LOAD ./Startup/startup_CH573.o
LOAD ./RVMSIS/core_riscv.o
LOAD ./Profile/debug_service.o
LOAD ./Profile/devinfoservice.o
LOAD ./HAL/MCU.o
LOAD ./HAL/RTC.o
LOAD ./HAL/SLEEP.o
LOAD ./APP/Fan.o
LOAD ./APP/User_config.o
LOAD ./APP/peripheral.o
LOAD ./APP/peripheral_main.o
LOAD E:\PD_Fan\PD_Fan\Software\EXAM\SRC\StdPeriphDriver\libISP573.a
LOAD E:\PD_Fan\PD_Fan\Software\EXAM\BLE\LIB\libCH57xBLE.a
LOAD c:/mounriver/mounriver_studio/toolchain/risc-v embedded gcc/bin/../lib/gcc/riscv-none-embed/8.2.0/rv32imac/ilp32\libgcc.a
LOAD c:/mounriver/mounriver_studio/toolchain/risc-v embedded gcc/bin/../lib/gcc/riscv-none-embed/8.2.0/../../../../riscv-none-embed/lib/rv32imac/ilp32\libg_nano.a
LOAD c:/mounriver/mounriver_studio/toolchain/risc-v embedded gcc/bin/../lib/gcc/riscv-none-embed/8.2.0/../../../../riscv-none-embed/lib/rv32imac/ilp32\libc_nano.a
LOAD c:/mounriver/mounriver_studio/toolchain/risc-v embedded gcc/bin/../lib/gcc/riscv-none-embed/8.2.0/rv32imac/ilp32\libgcc.a
START GROUP
LOAD c:/mounriver/mounriver_studio/toolchain/risc-v embedded gcc/bin/../lib/gcc/riscv-none-embed/8.2.0/rv32imac/ilp32\libgcc.a
LOAD c:/mounriver/mounriver_studio/toolchain/risc-v embedded gcc/bin/../lib/gcc/riscv-none-embed/8.2.0/../../../../riscv-none-embed/lib/rv32imac/ilp32\libc_nano.a
LOAD c:/mounriver/mounriver_studio/toolchain/risc-v embedded gcc/bin/../lib/gcc/riscv-none-embed/8.2.0/../../../../riscv-none-embed/lib/rv32imac/ilp32\libnosys.a
END GROUP
START GROUP
LOAD c:/mounriver/mounriver_studio/toolchain/risc-v embedded gcc/bin/../lib/gcc/riscv-none-embed/8.2.0/rv32imac/ilp32\libgcc.a
LOAD c:/mounriver/mounriver_studio/toolchain/risc-v embedded gcc/bin/../lib/gcc/riscv-none-embed/8.2.0/../../../../riscv-none-embed/lib/rv32imac/ilp32\libc_nano.a
LOAD c:/mounriver/mounriver_studio/toolchain/risc-v embedded gcc/bin/../lib/gcc/riscv-none-embed/8.2.0/../../../../riscv-none-embed/lib/rv32imac/ilp32\libnosys.a
END GROUP

.init           0x0000000000000000        0x4
                0x0000000000000000                _sinit = .
                0x0000000000000000                . = ALIGN (0x4)
 *(SORT_NONE(.init))
 .init          0x0000000000000000        0x4 ./Startup/startup_CH573.o
                0x0000000000000000                _start
                0x0000000000000004                . = ALIGN (0x4)
                0x0000000000000004                _einit = .

.highcodelalign
                0x0000000000000004        0x0
                0x0000000000000004                . = ALIGN (0x4)
                0x0000000000000004                PROVIDE (_highcode_lma = .)

.highcode       0x0000000020003800     0x11bc load address 0x0000000000000004
                0x0000000020003800                . = ALIGN (0x4)
                0x0000000020003800                PROVIDE (_highcode_vma_start = .)
 *(.vector)
 .vector        0x0000000020003800       0x90 ./Startup/startup_CH573.o
 *(SORT_NONE(.vector_handler))
 .vector_handler
                0x0000000020003890       0x2c ./Startup/startup_CH573.o
                0x0000000020003890                NMI_Handler
                0x0000000020003894                SysTick_Handler
                0x0000000020003896                SW_Handler
                0x0000000020003898                TMR0_IRQHandler
                0x000000002000389a                GPIOA_IRQHandler
                0x000000002000389c                GPIOB_IRQHandler
                0x000000002000389e                SPI0_IRQHandler
                0x00000000200038a0                BB_IRQHandler
                0x00000000200038a2                LLE_IRQHandler
                0x00000000200038a4                USB_IRQHandler
                0x00000000200038a6                TMR1_IRQHandler
                0x00000000200038a8                TMR2_IRQHandler
                0x00000000200038aa                UART0_IRQHandler
                0x00000000200038ac                UART1_IRQHandler
                0x00000000200038b0                ADC_IRQHandler
                0x00000000200038b2                PWMX_IRQHandler
                0x00000000200038b4                TMR3_IRQHandler
                0x00000000200038b6                UART2_IRQHandler
                0x00000000200038b8                UART3_IRQHandler
                0x00000000200038ba                WDOG_BAT_IRQHandler
 *(.highcode)
 .highcode      0x00000000200038bc       0x4a ./StdPeriphDriver/CH57x_clk.o
                0x00000000200038bc                Get_Calibration_Cnt_RAM
 .highcode      0x0000000020003906      0x1a8 ./StdPeriphDriver/CH57x_sys.o
                0x0000000020003906                SetSysClock
                0x0000000020003a02                SYS_ResetExecute
                0x0000000020003a3a                HardFault_Handler
                0x0000000020003a78                mDelayuS
                0x0000000020003a86                mDelaymS
 .highcode      0x0000000020003aae       0x16 ./HAL/RTC.o
                0x0000000020003aae                RTC_IRQHandler
 .highcode      0x0000000020003ac4        0x8 ./APP/peripheral_main.o
                0x0000000020003ac4                Main_Circulation
 .highcode      0x0000000020003acc      0x3ee E:\PD_Fan\PD_Fan\Software\EXAM\SRC\StdPeriphDriver\libISP573.a(ISP573.o)
                0x0000000020003acc                FLASH_ROM_BEG
                0x0000000020003ade                FLASH_ROM_END
                0x0000000020003aec                FLASH_ROM_IN
                0x0000000020003afa                FLASH_ROM_OUT
                0x0000000020003b08                FLASH_ROM_ADDR
                0x0000000020003b50                FLASH_ROM_WAIT
                0x0000000020003b88                FLASH_EEPROM_CMD
 .highcode      0x0000000020003eba      0x230 E:\PD_Fan\PD_Fan\Software\EXAM\BLE\LIB\libCH57xBLE.a(tmos.o)
                0x0000000020003ed6                tmos_memcpy
                0x0000000020003ef6                tmos_memcpy_word
                0x0000000020003f12                TMOS_SystemProcess
 .highcode      0x00000000200040ea       0xc2 E:\PD_Fan\PD_Fan\Software\EXAM\BLE\LIB\libCH57xBLE.a(tmos_hw.o)
                0x00000000200040ea                BLE_GetHSEClock
                0x0000000020004128                RTC_Get32KClock
                0x0000000020004140                SYS_GetTickCount
 .highcode      0x00000000200041ac      0x128 E:\PD_Fan\PD_Fan\Software\EXAM\BLE\LIB\libCH57xBLE.a(ll_connect.o)
                0x00000000200041ac                ll_connect_process_data
                0x00000000200041fa                ll_connect_event_continue
 .highcode      0x00000000200042d4      0x1c4 E:\PD_Fan\PD_Fan\Software\EXAM\BLE\LIB\libCH57xBLE.a(bb.o)
                0x00000000200042d4                BB_IRQLibHandler
                0x000000002000444e                BB_IRQLibFunction
 .highcode      0x0000000020004498      0x198 E:\PD_Fan\PD_Fan\Software\EXAM\BLE\LIB\libCH57xBLE.a(ip.o)
                0x0000000020004498                ll_tx_wait_finish
                0x00000000200044c4                ll_tx_wait_tx_dma
                0x0000000020004522                ll_rx_wait_finish
                0x0000000020004558                ll_rx_wait_tx_dma
                0x00000000200045a6                ble_ll_chkcrc
 .highcode      0x0000000020004630      0x1a4 E:\PD_Fan\PD_Fan\Software\EXAM\BLE\LIB\libCH57xBLE.a(lle.o)
                0x0000000020004630                LLE_IRQLibHandler
                0x000000002000478a                LLE_IRQLibFunction
 .highcode      0x00000000200047d4       0x82 E:\PD_Fan\PD_Fan\Software\EXAM\BLE\LIB\libCH57xBLE.a(rf_fh.o)
                0x00000000200047d4                RF_HopGetChannel
 .highcode      0x0000000020004856       0x2c E:\PD_Fan\PD_Fan\Software\EXAM\BLE\LIB\libCH57xBLE.a(rfend.o)
                0x0000000020004856                RFEND_WaitTune
 .highcode      0x0000000020004882      0x13a E:\PD_Fan\PD_Fan\Software\EXAM\BLE\LIB\libCH57xBLE.a(memory.o)
                0x0000000020004882                tmos_memory_allocate
                0x000000002000491c                tmos_memory_free
 *(.highcode.*)
                0x00000000200049bc                . = ALIGN (0x4)
 *fill*         0x00000000200049bc        0x0 
                0x00000000200049bc                PROVIDE (_highcode_vma_end = .)

.text           0x00000000000011c0    0x1cb14
                0x00000000000011c0                . = ALIGN (0x4)
 *(SORT_NONE(.handle_reset))
 .handle_reset  0x00000000000011c0       0xa2 ./Startup/startup_CH573.o
                0x00000000000011c0                handle_reset
 *(.text)
 .text          0x0000000000001262       0xa8 c:/mounriver/mounriver_studio/toolchain/risc-v embedded gcc/bin/../lib/gcc/riscv-none-embed/8.2.0/../../../../riscv-none-embed/lib/rv32imac/ilp32\libg_nano.a(lib_a-memset.o)
                0x0000000000001262                memset
 *(.text.*)
 .text.ADC_ExtSingleChSampInit
                0x000000000000130a       0x24 ./StdPeriphDriver/CH57x_adc.o
                0x000000000000130a                ADC_ExtSingleChSampInit
 .text.ADC_InterTSSampInit
                0x000000000000132e       0x28 ./StdPeriphDriver/CH57x_adc.o
                0x000000000000132e                ADC_InterTSSampInit
 .text.ADC_ExcutSingleConver
                0x0000000000001356       0x20 ./StdPeriphDriver/CH57x_adc.o
                0x0000000000001356                ADC_ExcutSingleConver
 .text.Calibration_LSI_FLASH
                0x0000000000001376      0x284 ./StdPeriphDriver/CH57x_clk.o
                0x0000000000001376                Calibration_LSI_FLASH
 .text.Calibration_LSI_RAM
                0x00000000000015fa      0x23e ./StdPeriphDriver/CH57x_clk.o
                0x00000000000015fa                Calibration_LSI_RAM
 .text.RTC_InitTime
                0x0000000000001838      0x134 ./StdPeriphDriver/CH57x_clk.o
                0x0000000000001838                RTC_InitTime
 .text.GPIOA_ModeCfg
                0x000000000000196c       0xa6 ./StdPeriphDriver/CH57x_gpio.o
                0x000000000000196c                GPIOA_ModeCfg
 .text.GPIOB_ModeCfg
                0x0000000000001a12       0xa6 ./StdPeriphDriver/CH57x_gpio.o
                0x0000000000001a12                GPIOB_ModeCfg
 .text.GPIOPinRemap
                0x0000000000001ab8       0x1a ./StdPeriphDriver/CH57x_gpio.o
                0x0000000000001ab8                GPIOPinRemap
 .text.GetSysClock
                0x0000000000001ad2       0x42 ./StdPeriphDriver/CH57x_sys.o
                0x0000000000001ad2                GetSysClock
 .text.SYS_GetSysTickCnt
                0x0000000000001b14        0xa ./StdPeriphDriver/CH57x_sys.o
                0x0000000000001b14                SYS_GetSysTickCnt
 .text._write   0x0000000000001b1e       0x28 ./StdPeriphDriver/CH57x_sys.o
                0x0000000000001b1e                _write
 .text.TMR1_PWMInit
                0x0000000000001b46       0x18 ./StdPeriphDriver/CH57x_timer1.o
                0x0000000000001b46                TMR1_PWMInit
 .text.TMR2_EXTSingleCounterInit
                0x0000000000001b5e       0x1a ./StdPeriphDriver/CH57x_timer2.o
                0x0000000000001b5e                TMR2_EXTSingleCounterInit
 .text.UART1_BaudRateCfg
                0x0000000000001b78       0x30 ./StdPeriphDriver/CH57x_uart1.o
                0x0000000000001b78                UART1_BaudRateCfg
 .text.UART1_DefInit
                0x0000000000001ba8       0x32 ./StdPeriphDriver/CH57x_uart1.o
                0x0000000000001ba8                UART1_DefInit
 .text.Debug_WriteAttrCB
                0x0000000000001bda       0x6c ./Profile/debug_service.o
 .text.Debug_ReadAttrCB
                0x0000000000001c46       0x90 ./Profile/debug_service.o
 .text.Debug_HandleConnStatusCB
                0x0000000000001cd6       0x44 ./Profile/debug_service.o
 .text.Debug_AddService
                0x0000000000001d1a       0x66 ./Profile/debug_service.o
                0x0000000000001d1a                Debug_AddService
 .text.Debug_Notify_LowLevel
                0x0000000000001d80       0x46 ./Profile/debug_service.o
                0x0000000000001d80                Debug_Notify_LowLevel
 .text.Debug_Notify
                0x0000000000001dc6       0x58 ./Profile/debug_service.o
                0x0000000000001dc6                Debug_Notify
 .text.Debug_Print
                0x0000000000001e1e       0x80 ./Profile/debug_service.o
                0x0000000000001e1e                Debug_Print
 .text.devInfo_ReadAttrCB
                0x0000000000001e9e      0x196 ./Profile/devinfoservice.o
 .text.DevInfo_AddService
                0x0000000000002034       0x18 ./Profile/devinfoservice.o
                0x0000000000002034                DevInfo_AddService
 .text.Lib_Calibration_LSI
                0x000000000000204c       0x30 ./HAL/MCU.o
                0x000000000000204c                Lib_Calibration_LSI
 .text.Lib_Read_Flash
                0x000000000000207c       0x1c ./HAL/MCU.o
                0x000000000000207c                Lib_Read_Flash
 .text.Lib_Write_Flash
                0x0000000000002098       0x40 ./HAL/MCU.o
                0x0000000000002098                Lib_Write_Flash
 .text.HAL_GetInterTempValue
                0x00000000000020d8       0x72 ./HAL/MCU.o
                0x00000000000020d8                HAL_GetInterTempValue
 .text.HAL_ProcessEvent
                0x000000000000214a       0x7e ./HAL/MCU.o
                0x000000000000214a                HAL_ProcessEvent
 .text.CH57X_BLEInit
                0x00000000000021c8      0x12c ./HAL/MCU.o
                0x00000000000021c8                CH57X_BLEInit
 .text.HAL_Init
                0x00000000000022f4       0x34 ./HAL/MCU.o
                0x00000000000022f4                HAL_Init
 .text.HAL_TimeInit
                0x0000000000002328       0x5e ./HAL/RTC.o
                0x0000000000002328                HAL_TimeInit
 .text.PD_Init  0x0000000000002386       0x48 ./APP/Fan.o
                0x0000000000002386                PD_Init
 .text.Set_PD_Vol
                0x00000000000023ce       0xc4 ./APP/Fan.o
                0x00000000000023ce                Set_PD_Vol
 .text.Get_PD_Vol
                0x0000000000002492        0x6 ./APP/Fan.o
                0x0000000000002492                Get_PD_Vol
 .text.Get_VBUS_Vol
                0x0000000000002498       0x40 ./APP/Fan.o
                0x0000000000002498                Get_VBUS_Vol
 .text.Fan_Init
                0x00000000000024d8       0x78 ./APP/Fan.o
                0x00000000000024d8                Fan_Init
 .text.Set_Fan_Duty
                0x0000000000002550       0x14 ./APP/Fan.o
                0x0000000000002550                Set_Fan_Duty
 .text.Cal_Fan_RPM
                0x0000000000002564       0x2c ./APP/Fan.o
                0x0000000000002564                Cal_Fan_RPM
 .text.Get_Fan_RPM
                0x0000000000002590        0x6 ./APP/Fan.o
                0x0000000000002590                Get_Fan_RPM
 .text.Record_Config
                0x0000000000002596       0x42 ./APP/User_config.o
                0x0000000000002596                Record_Config
 .text.Read_Config
                0x00000000000025d8       0x36 ./APP/User_config.o
                0x00000000000025d8                Read_Config
 .text.Init_Config
                0x000000000000260e       0x58 ./APP/User_config.o
                0x000000000000260e                Init_Config
 .text.Debug_Read_Callback
                0x0000000000002666       0x52 ./APP/peripheral.o
 .text.peripheralRssiCB
                0x00000000000026b8       0x12 ./APP/peripheral.o
 .text.Debug_Write_Callback
                0x00000000000026ca       0x4a ./APP/peripheral.o
 .text.Peripheral_LinkTerminated
                0x0000000000002714       0x44 ./APP/peripheral.o
 .text.peripheralStateNotificationCB
                0x0000000000002758      0x134 ./APP/peripheral.o
 .text.peripheralParamUpdateCB
                0x000000000000288c       0x30 ./APP/peripheral.o
 .text.Peripheral_ProcessEvent
                0x00000000000028bc      0x10c ./APP/peripheral.o
                0x00000000000028bc                Peripheral_ProcessEvent
 .text.Peripheral_Init
                0x00000000000029c8      0x14e ./APP/peripheral.o
                0x00000000000029c8                Peripheral_Init
 .text.startup.main
                0x0000000000002b16       0x50 ./APP/peripheral_main.o
                0x0000000000002b16                main
 .text.tmos_msg_enqueue
                0x0000000000002b66       0x1e E:\PD_Fan\PD_Fan\Software\EXAM\BLE\LIB\libCH57xBLE.a(message.o)
                0x0000000000002b66                tmos_msg_enqueue
 .text.tmos_msg_deallocate
                0x0000000000002b84       0x2c E:\PD_Fan\PD_Fan\Software\EXAM\BLE\LIB\libCH57xBLE.a(message.o)
                0x0000000000002b84                tmos_msg_deallocate
 .text.tmos_msg_allocate
                0x0000000000002bb0       0x3e E:\PD_Fan\PD_Fan\Software\EXAM\BLE\LIB\libCH57xBLE.a(message.o)
                0x0000000000002bb0                tmos_msg_allocate
 .text.tmos_msg_receive
                0x0000000000002bee       0x68 E:\PD_Fan\PD_Fan\Software\EXAM\BLE\LIB\libCH57xBLE.a(message.o)
                0x0000000000002bee                tmos_msg_receive
 .text.tmos_msg_send
                0x0000000000002c56       0x56 E:\PD_Fan\PD_Fan\Software\EXAM\BLE\LIB\libCH57xBLE.a(message.o)
                0x0000000000002c56                tmos_msg_send
 .text.tmos_msg_init
                0x0000000000002cac        0x6 E:\PD_Fan\PD_Fan\Software\EXAM\BLE\LIB\libCH57xBLE.a(message.o)
                0x0000000000002cac                tmos_msg_init
 .text.tmosFindTask
                0x0000000000002cb2       0x20 E:\PD_Fan\PD_Fan\Software\EXAM\BLE\LIB\libCH57xBLE.a(tmos.o)
 .text.TMOS_CbTimerProcessEvent
                0x0000000000002cd2       0x7c E:\PD_Fan\PD_Fan\Software\EXAM\BLE\LIB\libCH57xBLE.a(tmos.o)
                0x0000000000002cd2                TMOS_CbTimerProcessEvent
 .text.tmos_rand
                0x0000000000002d4e       0x54 E:\PD_Fan\PD_Fan\Software\EXAM\BLE\LIB\libCH57xBLE.a(tmos.o)
                0x0000000000002d4e                tmos_rand
 .text.tmos_query_sleep_time
                0x0000000000002da2      0x178 E:\PD_Fan\PD_Fan\Software\EXAM\BLE\LIB\libCH57xBLE.a(tmos.o)
                0x0000000000002da2                tmos_query_sleep_time
 .text.tmos_memset
                0x0000000000002f1a       0x12 E:\PD_Fan\PD_Fan\Software\EXAM\BLE\LIB\libCH57xBLE.a(tmos.o)
                0x0000000000002f1a                tmos_memset
 .text.tmos_strlen
                0x0000000000002f2c       0x14 E:\PD_Fan\PD_Fan\Software\EXAM\BLE\LIB\libCH57xBLE.a(tmos.o)
                0x0000000000002f2c                tmos_strlen
 .text.tmos_memdup
                0x0000000000002f40       0x3c E:\PD_Fan\PD_Fan\Software\EXAM\BLE\LIB\libCH57xBLE.a(tmos.o)
                0x0000000000002f40                tmos_memdup
 .text.tmos_memcmp
                0x0000000000002f7c       0x24 E:\PD_Fan\PD_Fan\Software\EXAM\BLE\LIB\libCH57xBLE.a(tmos.o)
                0x0000000000002f7c                tmos_memcmp
 .text.tmos_revmemcpy
                0x0000000000002fa0       0x1c E:\PD_Fan\PD_Fan\Software\EXAM\BLE\LIB\libCH57xBLE.a(tmos.o)
                0x0000000000002fa0                tmos_revmemcpy
 .text.tmos_isbufset
                0x0000000000002fbc       0x1e E:\PD_Fan\PD_Fan\Software\EXAM\BLE\LIB\libCH57xBLE.a(tmos.o)
                0x0000000000002fbc                tmos_isbufset
 .text.tmos_set_event
                0x0000000000002fda       0x2a E:\PD_Fan\PD_Fan\Software\EXAM\BLE\LIB\libCH57xBLE.a(tmos.o)
                0x0000000000002fda                tmos_set_event
 .text.tmos_query_system_time
                0x0000000000003004       0xce E:\PD_Fan\PD_Fan\Software\EXAM\BLE\LIB\libCH57xBLE.a(tmos.o)
                0x0000000000003004                tmos_query_system_time
 .text.tmos_clear_event
                0x00000000000030d2       0x2e E:\PD_Fan\PD_Fan\Software\EXAM\BLE\LIB\libCH57xBLE.a(tmos.o)
                0x00000000000030d2                tmos_clear_event
 .text.tmos_start_task
                0x0000000000003100       0x8e E:\PD_Fan\PD_Fan\Software\EXAM\BLE\LIB\libCH57xBLE.a(tmos.o)
                0x0000000000003100                tmos_start_task
 .text.tmos_start_callback_task
                0x000000000000318e       0xac E:\PD_Fan\PD_Fan\Software\EXAM\BLE\LIB\libCH57xBLE.a(tmos.o)
                0x000000000000318e                tmos_start_callback_task
 .text.tmos_start_reload_task
                0x000000000000323a       0x30 E:\PD_Fan\PD_Fan\Software\EXAM\BLE\LIB\libCH57xBLE.a(tmos.o)
                0x000000000000323a                tmos_start_reload_task
 .text.tmos_stop_task
                0x000000000000326a       0x42 E:\PD_Fan\PD_Fan\Software\EXAM\BLE\LIB\libCH57xBLE.a(tmos.o)
                0x000000000000326a                tmos_stop_task
 .text.tmos_stop_callback_task
                0x00000000000032ac       0x5c E:\PD_Fan\PD_Fan\Software\EXAM\BLE\LIB\libCH57xBLE.a(tmos.o)
                0x00000000000032ac                tmos_stop_callback_task
 .text.tmos_get_task_timer
                0x0000000000003308       0x16 E:\PD_Fan\PD_Fan\Software\EXAM\BLE\LIB\libCH57xBLE.a(tmos.o)
                0x0000000000003308                tmos_get_task_timer
 .text.tmos_update_callback_timer
                0x000000000000331e       0x62 E:\PD_Fan\PD_Fan\Software\EXAM\BLE\LIB\libCH57xBLE.a(tmos.o)
                0x000000000000331e                tmos_update_callback_timer
 .text.TMOS_Set32KTuneValue
                0x0000000000003380        0xa E:\PD_Fan\PD_Fan\Software\EXAM\BLE\LIB\libCH57xBLE.a(tmos.o)
                0x0000000000003380                TMOS_Set32KTuneValue
 .text.TMOS_TimerRegister
                0x000000000000338a       0x1a E:\PD_Fan\PD_Fan\Software\EXAM\BLE\LIB\libCH57xBLE.a(tmos.o)
                0x000000000000338a                TMOS_TimerRegister
 .text.TMOS_ProcessRegister
                0x00000000000033a4       0x16 E:\PD_Fan\PD_Fan\Software\EXAM\BLE\LIB\libCH57xBLE.a(tmos.o)
                0x00000000000033a4                TMOS_ProcessRegister
 .text.TMOS_Init
                0x00000000000033ba       0xe6 E:\PD_Fan\PD_Fan\Software\EXAM\BLE\LIB\libCH57xBLE.a(tmos.o)
                0x00000000000033ba                TMOS_Init
 .text.TMOS_ProcessEventRegister
                0x00000000000034a0       0x38 E:\PD_Fan\PD_Fan\Software\EXAM\BLE\LIB\libCH57xBLE.a(tmos.o)
                0x00000000000034a0                TMOS_ProcessEventRegister
 .text.BLE_LibInit
                0x00000000000034d8      0x1a4 E:\PD_Fan\PD_Fan\Software\EXAM\BLE\LIB\libCH57xBLE.a(tmos.o)
                0x00000000000034d8                BLE_LibInit
 .text.ble_ll_common_rand8
                0x000000000000367c       0x24 E:\PD_Fan\PD_Fan\Software\EXAM\BLE\LIB\libCH57xBLE.a(tmos_hw.o)
                0x000000000000367c                ble_ll_common_rand8
 .text.ble_ll_common_rand16
                0x00000000000036a0       0x24 E:\PD_Fan\PD_Fan\Software\EXAM\BLE\LIB\libCH57xBLE.a(tmos_hw.o)
                0x00000000000036a0                ble_ll_common_rand16
 .text.ble_ll_common_rand32
                0x00000000000036c4       0x20 E:\PD_Fan\PD_Fan\Software\EXAM\BLE\LIB\libCH57xBLE.a(tmos_hw.o)
                0x00000000000036c4                ble_ll_common_rand32
 .text.ll_hw_temp_sample
                0x00000000000036e4       0xc0 E:\PD_Fan\PD_Fan\Software\EXAM\BLE\LIB\libCH57xBLE.a(tmos_hw.o)
                0x00000000000036e4                ll_hw_temp_sample
 .text.TMOS_TimerInit
                0x00000000000037a4       0x5c E:\PD_Fan\PD_Fan\Software\EXAM\BLE\LIB\libCH57xBLE.a(tmos_hw.o)
                0x00000000000037a4                TMOS_TimerInit
 .text.tmos_snv_init
                0x0000000000003800       0xbc E:\PD_Fan\PD_Fan\Software\EXAM\BLE\LIB\libCH57xBLE.a(tmos_snv.o)
                0x0000000000003800                tmos_snv_init
 .text.tmos_snv_clear
                0x00000000000038bc       0xae E:\PD_Fan\PD_Fan\Software\EXAM\BLE\LIB\libCH57xBLE.a(tmos_snv.o)
                0x00000000000038bc                tmos_snv_clear
 .text.tmos_snv_read
                0x000000000000396a      0x292 E:\PD_Fan\PD_Fan\Software\EXAM\BLE\LIB\libCH57xBLE.a(tmos_snv.o)
                0x000000000000396a                tmos_snv_read
 .text.tmos_snv_notify
                0x0000000000003bfc       0x5a E:\PD_Fan\PD_Fan\Software\EXAM\BLE\LIB\libCH57xBLE.a(tmos_snv.o)
                0x0000000000003bfc                tmos_snv_notify
 .text.tmos_snv_write
                0x0000000000003c56      0x2ce E:\PD_Fan\PD_Fan\Software\EXAM\BLE\LIB\libCH57xBLE.a(tmos_snv.o)
                0x0000000000003c56                tmos_snv_write
 .text.tmos_snv_compact
                0x0000000000003f24        0x4 E:\PD_Fan\PD_Fan\Software\EXAM\BLE\LIB\libCH57xBLE.a(tmos_snv.o)
                0x0000000000003f24                tmos_snv_compact
 .text.ATT_BuildErrorRsp
                0x0000000000003f28       0x26 E:\PD_Fan\PD_Fan\Software\EXAM\BLE\LIB\libCH57xBLE.a(att.o)
                0x0000000000003f28                ATT_BuildErrorRsp
 .text.ATT_ParamInit
                0x0000000000003f4e        0xa E:\PD_Fan\PD_Fan\Software\EXAM\BLE\LIB\libCH57xBLE.a(att.o)
                0x0000000000003f4e                ATT_ParamInit
 .text.ATT_ConvertUUIDto128
                0x0000000000003f58       0x46 E:\PD_Fan\PD_Fan\Software\EXAM\BLE\LIB\libCH57xBLE.a(att.o)
                0x0000000000003f58                ATT_ConvertUUIDto128
 .text.ATT_CompareUUID
                0x0000000000003f9e       0x62 E:\PD_Fan\PD_Fan\Software\EXAM\BLE\LIB\libCH57xBLE.a(att.o)
                0x0000000000003f9e                ATT_CompareUUID
 .text.ATT_RegisterServer
                0x0000000000004000        0x6 E:\PD_Fan\PD_Fan\Software\EXAM\BLE\LIB\libCH57xBLE.a(att.o)
                0x0000000000004000                ATT_RegisterServer
 .text.ATT_ParsePacket
                0x0000000000004006       0x94 E:\PD_Fan\PD_Fan\Software\EXAM\BLE\LIB\libCH57xBLE.a(att.o)
                0x0000000000004006                ATT_ParsePacket
 .text.ATT_UpdateMTU
                0x000000000000409a       0x3c E:\PD_Fan\PD_Fan\Software\EXAM\BLE\LIB\libCH57xBLE.a(att.o)
                0x000000000000409a                ATT_UpdateMTU
 .text.ATT_GetMTU
                0x00000000000040d6       0x1e E:\PD_Fan\PD_Fan\Software\EXAM\BLE\LIB\libCH57xBLE.a(att.o)
                0x00000000000040d6                ATT_GetMTU
 .text.attSendMsg
                0x00000000000040f4       0xb6 E:\PD_Fan\PD_Fan\Software\EXAM\BLE\LIB\libCH57xBLE.a(att.o)
                0x00000000000040f4                attSendMsg
 .text.attSendRspMsg
                0x00000000000041aa       0x46 E:\PD_Fan\PD_Fan\Software\EXAM\BLE\LIB\libCH57xBLE.a(att.o)
                0x00000000000041aa                attSendRspMsg
 .text.ATT_ErrorRsp
                0x00000000000041f0       0x10 E:\PD_Fan\PD_Fan\Software\EXAM\BLE\LIB\libCH57xBLE.a(att.o)
                0x00000000000041f0                ATT_ErrorRsp
 .text.disconnectNext
                0x0000000000004200       0x22 E:\PD_Fan\PD_Fan\Software\EXAM\BLE\LIB\libCH57xBLE.a(gap.o)
 .text.GAP_ParamInit
                0x0000000000004222       0x80 E:\PD_Fan\PD_Fan\Software\EXAM\BLE\LIB\libCH57xBLE.a(gap.o)
                0x0000000000004222                GAP_ParamInit
 .text.sendTerminateEvent
                0x00000000000042a2       0x58 E:\PD_Fan\PD_Fan\Software\EXAM\BLE\LIB\libCH57xBLE.a(gap.o)
                0x00000000000042a2                sendTerminateEvent
 .text.gapRegisterCentral
                0x00000000000042fa        0x6 E:\PD_Fan\PD_Fan\Software\EXAM\BLE\LIB\libCH57xBLE.a(gap.o)
                0x00000000000042fa                gapRegisterCentral
 .text.gapRegisterCentralConn
                0x0000000000004300        0x6 E:\PD_Fan\PD_Fan\Software\EXAM\BLE\LIB\libCH57xBLE.a(gap.o)
                0x0000000000004300                gapRegisterCentralConn
 .text.gapRegisterPeripheral
                0x0000000000004306        0x6 E:\PD_Fan\PD_Fan\Software\EXAM\BLE\LIB\libCH57xBLE.a(gap.o)
                0x0000000000004306                gapRegisterPeripheral
 .text.gapRegisterPeripheralConn
                0x000000000000430c        0x6 E:\PD_Fan\PD_Fan\Software\EXAM\BLE\LIB\libCH57xBLE.a(gap.o)
                0x000000000000430c                gapRegisterPeripheralConn
 .text.smGenerateRandBuf
                0x0000000000004312       0x56 E:\PD_Fan\PD_Fan\Software\EXAM\BLE\LIB\libCH57xBLE.a(gap.o)
                0x0000000000004312                smGenerateRandBuf
 .text.gapL2capConnParamUpdateReq
                0x0000000000004368       0x32 E:\PD_Fan\PD_Fan\Software\EXAM\BLE\LIB\libCH57xBLE.a(gap.o)
                0x0000000000004368                gapL2capConnParamUpdateReq
 .text.gapValidADType
                0x000000000000439a       0x16 E:\PD_Fan\PD_Fan\Software\EXAM\BLE\LIB\libCH57xBLE.a(gap.o)
                0x000000000000439a                gapValidADType
 .text.gapFindADType
                0x00000000000043b0       0x8e E:\PD_Fan\PD_Fan\Software\EXAM\BLE\LIB\libCH57xBLE.a(gap.o)
                0x00000000000043b0                gapFindADType
 .text.GAP_SecParamsInit
                0x000000000000443e       0x9a E:\PD_Fan\PD_Fan\Software\EXAM\BLE\LIB\libCH57xBLE.a(gap.o)
                0x000000000000443e                GAP_SecParamsInit
 .text.GAP_ParamsInit
                0x00000000000044d8       0x48 E:\PD_Fan\PD_Fan\Software\EXAM\BLE\LIB\libCH57xBLE.a(gap.o)
                0x00000000000044d8                GAP_ParamsInit
 .text.gapAddAddrAdj
                0x0000000000004520       0x48 E:\PD_Fan\PD_Fan\Software\EXAM\BLE\LIB\libCH57xBLE.a(gap.o)
                0x0000000000004520                gapAddAddrAdj
 .text.gapDetermineAddrType
                0x0000000000004568       0x28 E:\PD_Fan\PD_Fan\Software\EXAM\BLE\LIB\libCH57xBLE.a(gap.o)
                0x0000000000004568                gapDetermineAddrType
 .text.gapFreeAuthLink
                0x0000000000004590       0x4a E:\PD_Fan\PD_Fan\Software\EXAM\BLE\LIB\libCH57xBLE.a(gap.o)
                0x0000000000004590                gapFreeAuthLink
 .text.gapGetDevAddress
                0x00000000000045da       0x24 E:\PD_Fan\PD_Fan\Software\EXAM\BLE\LIB\libCH57xBLE.a(gap.o)
                0x00000000000045da                gapGetDevAddress
 .text.gapGetDevAddressMode
                0x00000000000045fe        0xa E:\PD_Fan\PD_Fan\Software\EXAM\BLE\LIB\libCH57xBLE.a(gap.o)
                0x00000000000045fe                gapGetDevAddressMode
 .text.gapGetIRK
                0x0000000000004608        0xc E:\PD_Fan\PD_Fan\Software\EXAM\BLE\LIB\libCH57xBLE.a(gap.o)
                0x0000000000004608                gapGetIRK
 .text.gapGetSRK
                0x0000000000004614        0xc E:\PD_Fan\PD_Fan\Software\EXAM\BLE\LIB\libCH57xBLE.a(gap.o)
                0x0000000000004614                gapGetSRK
 .text.gapGetSignCounter
                0x0000000000004620        0xe E:\PD_Fan\PD_Fan\Software\EXAM\BLE\LIB\libCH57xBLE.a(gap.o)
                0x0000000000004620                gapGetSignCounter
 .text.gapIncSignCounter
                0x000000000000462e       0x28 E:\PD_Fan\PD_Fan\Software\EXAM\BLE\LIB\libCH57xBLE.a(gap.o)
                0x000000000000462e                gapIncSignCounter
 .text.gapProcessConnEvt
                0x0000000000004656       0x48 E:\PD_Fan\PD_Fan\Software\EXAM\BLE\LIB\libCH57xBLE.a(gap.o)
                0x0000000000004656                gapProcessConnEvt
 .text.gapProcessDisconnectCompleteEvt
                0x000000000000469e       0xa8 E:\PD_Fan\PD_Fan\Software\EXAM\BLE\LIB\libCH57xBLE.a(gap.o)
                0x000000000000469e                gapProcessDisconnectCompleteEvt
 .text.sendAuthEvent
                0x0000000000004746      0x11a E:\PD_Fan\PD_Fan\Software\EXAM\BLE\LIB\libCH57xBLE.a(gap.o)
                0x0000000000004746                sendAuthEvent
 .text.gapSendBondCompleteEvent
                0x0000000000004860       0x70 E:\PD_Fan\PD_Fan\Software\EXAM\BLE\LIB\libCH57xBLE.a(gap.o)
                0x0000000000004860                gapSendBondCompleteEvent
 .text.gapSendPairingReqEvent
                0x00000000000048d0       0x92 E:\PD_Fan\PD_Fan\Software\EXAM\BLE\LIB\libCH57xBLE.a(gap.o)
                0x00000000000048d0                gapSendPairingReqEvent
 .text.gapSendSlaveSecurityReqEvent
                0x0000000000004962       0x68 E:\PD_Fan\PD_Fan\Software\EXAM\BLE\LIB\libCH57xBLE.a(gap.o)
                0x0000000000004962                gapSendSlaveSecurityReqEvent
 .text.gapSendDeviceInitDoneEvent
                0x00000000000049ca       0x88 E:\PD_Fan\PD_Fan\Software\EXAM\BLE\LIB\libCH57xBLE.a(gap.o)
                0x00000000000049ca                gapSendDeviceInitDoneEvent
 .text.gapSendLinkUpdateEvent
                0x0000000000004a52       0x84 E:\PD_Fan\PD_Fan\Software\EXAM\BLE\LIB\libCH57xBLE.a(gap.o)
                0x0000000000004a52                gapSendLinkUpdateEvent
 .text.gapSendEstLinkEvent
                0x0000000000004ad6       0xb8 E:\PD_Fan\PD_Fan\Software\EXAM\BLE\LIB\libCH57xBLE.a(gap.o)
                0x0000000000004ad6                gapSendEstLinkEvent
 .text.gapProcessNewAddr
                0x0000000000004b8e       0x3e E:\PD_Fan\PD_Fan\Software\EXAM\BLE\LIB\libCH57xBLE.a(gap.o)
                0x0000000000004b8e                gapProcessNewAddr
 .text.gapProcessRandomAddrComplete
                0x0000000000004bcc       0xb6 E:\PD_Fan\PD_Fan\Software\EXAM\BLE\LIB\libCH57xBLE.a(gap.o)
                0x0000000000004bcc                gapProcessRandomAddrComplete
 .text.GAP_Authenticate
                0x0000000000004c82       0xd2 E:\PD_Fan\PD_Fan\Software\EXAM\BLE\LIB\libCH57xBLE.a(gap.o)
                0x0000000000004c82                GAP_Authenticate
 .text.GAP_Bond
                0x0000000000004d54       0xa2 E:\PD_Fan\PD_Fan\Software\EXAM\BLE\LIB\libCH57xBLE.a(gap.o)
                0x0000000000004d54                GAP_Bond
 .text.GAP_GetParamValue
                0x0000000000004df6       0x1e E:\PD_Fan\PD_Fan\Software\EXAM\BLE\LIB\libCH57xBLE.a(gap.o)
                0x0000000000004df6                GAP_GetParamValue
 .text.GAP_PasscodeUpdate
                0x0000000000004e14       0x50 E:\PD_Fan\PD_Fan\Software\EXAM\BLE\LIB\libCH57xBLE.a(gap.o)
                0x0000000000004e14                GAP_PasscodeUpdate
 .text.GAP_RegisterForMsgs
                0x0000000000004e64        0x6 E:\PD_Fan\PD_Fan\Software\EXAM\BLE\LIB\libCH57xBLE.a(gap.o)
                0x0000000000004e64                GAP_RegisterForMsgs
 .text.GAP_ResolvePrivateAddr
                0x0000000000004e6a        0x4 E:\PD_Fan\PD_Fan\Software\EXAM\BLE\LIB\libCH57xBLE.a(gap.o)
                0x0000000000004e6a                GAP_ResolvePrivateAddr
 .text.gapPairingCompleteCB
                0x0000000000004e6e      0x188 E:\PD_Fan\PD_Fan\Software\EXAM\BLE\LIB\libCH57xBLE.a(gap.o)
                0x0000000000004e6e                gapPairingCompleteCB
 .text.gapPasskeyNeededCB
                0x0000000000004ff6       0x8e E:\PD_Fan\PD_Fan\Software\EXAM\BLE\LIB\libCH57xBLE.a(gap.o)
                0x0000000000004ff6                gapPasskeyNeededCB
 .text.gapFreeEstLink
                0x0000000000005084       0x20 E:\PD_Fan\PD_Fan\Software\EXAM\BLE\LIB\libCH57xBLE.a(gap.o)
                0x0000000000005084                gapFreeEstLink
 .text.gapUpdateConnSignCounter
                0x00000000000050a4       0x7a E:\PD_Fan\PD_Fan\Software\EXAM\BLE\LIB\libCH57xBLE.a(gap.o)
                0x00000000000050a4                gapUpdateConnSignCounter
 .text.GAP_SendSlaveSecurityRequest
                0x000000000000511e       0x4c E:\PD_Fan\PD_Fan\Software\EXAM\BLE\LIB\libCH57xBLE.a(gap.o)
                0x000000000000511e                GAP_SendSlaveSecurityRequest
 .text.GAP_Signable
                0x000000000000516a       0x66 E:\PD_Fan\PD_Fan\Software\EXAM\BLE\LIB\libCH57xBLE.a(gap.o)
                0x000000000000516a                GAP_Signable
 .text.GAP_TerminateAuth
                0x00000000000051d0       0x2a E:\PD_Fan\PD_Fan\Software\EXAM\BLE\LIB\libCH57xBLE.a(gap.o)
                0x00000000000051d0                GAP_TerminateAuth
 .text.GAP_NumActiveConnections
                0x00000000000051fa        0x4 E:\PD_Fan\PD_Fan\Software\EXAM\BLE\LIB\libCH57xBLE.a(gap.o)
                0x00000000000051fa                GAP_NumActiveConnections
 .text.GAP_TerminateLinkReq
                0x00000000000051fe       0x8e E:\PD_Fan\PD_Fan\Software\EXAM\BLE\LIB\libCH57xBLE.a(gap.o)
                0x00000000000051fe                GAP_TerminateLinkReq
 .text.GAP_SetParamValue
                0x000000000000528c       0x4a E:\PD_Fan\PD_Fan\Software\EXAM\BLE\LIB\libCH57xBLE.a(gap.o)
                0x000000000000528c                GAP_SetParamValue
 .text.GAP_Init
                0x00000000000052d6       0x44 E:\PD_Fan\PD_Fan\Software\EXAM\BLE\LIB\libCH57xBLE.a(gap.o)
                0x00000000000052d6                GAP_Init
 .text.GAP_ProcessEvent
                0x000000000000531a      0x578 E:\PD_Fan\PD_Fan\Software\EXAM\BLE\LIB\libCH57xBLE.a(gap.o)
                0x000000000000531a                GAP_ProcessEvent
 .text.gapSendScanEnable
                0x0000000000005892       0x1e E:\PD_Fan\PD_Fan\Software\EXAM\BLE\LIB\libCH57xBLE.a(gap_central.o)
 .text.gapCentProcessConnEvt
                0x00000000000058b0      0x148 E:\PD_Fan\PD_Fan\Software\EXAM\BLE\LIB\libCH57xBLE.a(gap_central.o)
                0x00000000000058b0                gapCentProcessConnEvt
 .text.gapCancelLinkReq
                0x00000000000059f8       0x38 E:\PD_Fan\PD_Fan\Software\EXAM\BLE\LIB\libCH57xBLE.a(gap_central.o)
                0x00000000000059f8                gapCancelLinkReq
 .text.GAP_CentralParamInit
                0x0000000000005a30       0x4c E:\PD_Fan\PD_Fan\Software\EXAM\BLE\LIB\libCH57xBLE.a(gap_central.o)
                0x0000000000005a30                GAP_CentralParamInit
 .text.gapProcessAdvertDevInfo
                0x0000000000005a7c      0x23a E:\PD_Fan\PD_Fan\Software\EXAM\BLE\LIB\libCH57xBLE.a(gap_central.o)
                0x0000000000005a7c                gapProcessAdvertDevInfo
 .text.gapFreeScanRecs
                0x0000000000005cb6       0xa2 E:\PD_Fan\PD_Fan\Software\EXAM\BLE\LIB\libCH57xBLE.a(gap_central.o)
                0x0000000000005cb6                gapFreeScanRecs
 .text.gapSendDevDiscEvent
                0x0000000000005d58      0x124 E:\PD_Fan\PD_Fan\Software\EXAM\BLE\LIB\libCH57xBLE.a(gap_central.o)
                0x0000000000005d58                gapSendDevDiscEvent
 .text.gapSetScanParamStatus.part.2
                0x0000000000005e7c       0x40 E:\PD_Fan\PD_Fan\Software\EXAM\BLE\LIB\libCH57xBLE.a(gap_central.o)
 .text.gapCentProcessHCICmdEvt
                0x0000000000005ebc       0x3c E:\PD_Fan\PD_Fan\Software\EXAM\BLE\LIB\libCH57xBLE.a(gap_central.o)
                0x0000000000005ebc                gapCentProcessHCICmdEvt
 .text.gapProcessScanningEvt
                0x0000000000005ef8      0x110 E:\PD_Fan\PD_Fan\Software\EXAM\BLE\LIB\libCH57xBLE.a(gap_central.o)
                0x0000000000005ef8                gapProcessScanningEvt
 .text.gapProcessScanningDirectEvt
                0x0000000000006008       0xfe E:\PD_Fan\PD_Fan\Software\EXAM\BLE\LIB\libCH57xBLE.a(gap_central.o)
                0x0000000000006008                gapProcessScanningDirectEvt
 .text.GAP_CentConnRegister
                0x0000000000006106       0x12 E:\PD_Fan\PD_Fan\Software\EXAM\BLE\LIB\libCH57xBLE.a(gap_central.o)
                0x0000000000006106                GAP_CentConnRegister
 .text.GAP_CentDevMgrInit
                0x0000000000006118       0x94 E:\PD_Fan\PD_Fan\Software\EXAM\BLE\LIB\libCH57xBLE.a(gap_central.o)
                0x0000000000006118                GAP_CentDevMgrInit
 .text.gapFreeAdvertState
                0x00000000000061ac       0x20 E:\PD_Fan\PD_Fan\Software\EXAM\BLE\LIB\libCH57xBLE.a(gap_peripheral.o)
 .text.gapPeriProcessConnEvt
                0x00000000000061cc       0xbc E:\PD_Fan\PD_Fan\Software\EXAM\BLE\LIB\libCH57xBLE.a(gap_peripheral.o)
 .text.gapSetAdvParams
                0x0000000000006288       0x7e E:\PD_Fan\PD_Fan\Software\EXAM\BLE\LIB\libCH57xBLE.a(gap_peripheral.o)
 .text.GAP_PeripheralParamInit
                0x0000000000006306       0x4a E:\PD_Fan\PD_Fan\Software\EXAM\BLE\LIB\libCH57xBLE.a(gap_peripheral.o)
                0x0000000000006306                GAP_PeripheralParamInit
 .text.gapSendMakeDiscEvent
                0x0000000000006350       0x50 E:\PD_Fan\PD_Fan\Software\EXAM\BLE\LIB\libCH57xBLE.a(gap_peripheral.o)
                0x0000000000006350                gapSendMakeDiscEvent
 .text.gapPeriProcessHCICmdCompleteEvt
                0x00000000000063a0      0x192 E:\PD_Fan\PD_Fan\Software\EXAM\BLE\LIB\libCH57xBLE.a(gap_peripheral.o)
 .text.GAP_MakeDiscoverable
                0x0000000000006532       0xf0 E:\PD_Fan\PD_Fan\Software\EXAM\BLE\LIB\libCH57xBLE.a(gap_peripheral.o)
                0x0000000000006532                GAP_MakeDiscoverable
 .text.GAP_EndDiscoverable
                0x0000000000006622       0x5c E:\PD_Fan\PD_Fan\Software\EXAM\BLE\LIB\libCH57xBLE.a(gap_peripheral.o)
                0x0000000000006622                GAP_EndDiscoverable
 .text.gapProcessAdvertisingEvt
                0x000000000000667e       0x8e E:\PD_Fan\PD_Fan\Software\EXAM\BLE\LIB\libCH57xBLE.a(gap_peripheral.o)
 .text.GAP_UpdateAdvertisingData
                0x000000000000670c       0xb8 E:\PD_Fan\PD_Fan\Software\EXAM\BLE\LIB\libCH57xBLE.a(gap_peripheral.o)
                0x000000000000670c                GAP_UpdateAdvertisingData
 .text.GAP_PeriConnRegister
                0x00000000000067c4       0x2a E:\PD_Fan\PD_Fan\Software\EXAM\BLE\LIB\libCH57xBLE.a(gap_peripheral.o)
                0x00000000000067c4                GAP_PeriConnRegister
 .text.GAP_PeriDevMgrInit
                0x00000000000067ee       0xbc E:\PD_Fan\PD_Fan\Software\EXAM\BLE\LIB\libCH57xBLE.a(gap_peripheral.o)
                0x00000000000067ee                GAP_PeriDevMgrInit
 .text.ggs_SetAttrWPermit
                0x00000000000068aa       0x68 E:\PD_Fan\PD_Fan\Software\EXAM\BLE\LIB\libCH57xBLE.a(gapgattserver.o)
 .text.ggs_ReadAttrCB
                0x0000000000006912      0x152 E:\PD_Fan\PD_Fan\Software\EXAM\BLE\LIB\libCH57xBLE.a(gapgattserver.o)
 .text.ggs_WriteAttrCB
                0x0000000000006a64      0x154 E:\PD_Fan\PD_Fan\Software\EXAM\BLE\LIB\libCH57xBLE.a(gapgattserver.o)
 .text.GGS_ParamInit
                0x0000000000006bb8      0x23a E:\PD_Fan\PD_Fan\Software\EXAM\BLE\LIB\libCH57xBLE.a(gapgattserver.o)
                0x0000000000006bb8                GGS_ParamInit
 .text.GGS_SetParameter
                0x0000000000006df2       0xde E:\PD_Fan\PD_Fan\Software\EXAM\BLE\LIB\libCH57xBLE.a(gapgattserver.o)
                0x0000000000006df2                GGS_SetParameter
 .text.GGS_AddService
                0x0000000000006ed0       0x2c E:\PD_Fan\PD_Fan\Software\EXAM\BLE\LIB\libCH57xBLE.a(gapgattserver.o)
                0x0000000000006ed0                GGS_AddService
 .text.GAP_DeviceInit
                0x0000000000006efc       0xd8 E:\PD_Fan\PD_Fan\Software\EXAM\BLE\LIB\libCH57xBLE.a(gapgattserver.o)
                0x0000000000006efc                GAP_DeviceInit
 .text.gattGetPayload
                0x0000000000006fd4       0x7e E:\PD_Fan\PD_Fan\Software\EXAM\BLE\LIB\libCH57xBLE.a(gatt.o)
                0x0000000000006fd4                gattGetPayload
 .text.gattNotifyEvent
                0x0000000000007052       0x80 E:\PD_Fan\PD_Fan\Software\EXAM\BLE\LIB\libCH57xBLE.a(gatt.o)
                0x0000000000007052                gattNotifyEvent
 .text.gattSendFlowCtrlEvt
                0x00000000000070d2       0x4a E:\PD_Fan\PD_Fan\Software\EXAM\BLE\LIB\libCH57xBLE.a(gatt.o)
                0x00000000000070d2                gattSendFlowCtrlEvt
 .text.gattStartTimer
                0x000000000000711c        0xc E:\PD_Fan\PD_Fan\Software\EXAM\BLE\LIB\libCH57xBLE.a(gatt.o)
                0x000000000000711c                gattStartTimer
 .text.gattStopTimer
                0x0000000000007128       0x32 E:\PD_Fan\PD_Fan\Software\EXAM\BLE\LIB\libCH57xBLE.a(gatt.o)
                0x0000000000007128                gattStopTimer
 .text.GATT_AppCompletedMsg
                0x000000000000715a       0x30 E:\PD_Fan\PD_Fan\Software\EXAM\BLE\LIB\libCH57xBLE.a(gatt.o)
                0x000000000000715a                GATT_AppCompletedMsg
 .text.GATT_NotifyEvent
                0x000000000000718a       0x4e E:\PD_Fan\PD_Fan\Software\EXAM\BLE\LIB\libCH57xBLE.a(gatt.o)
                0x000000000000718a                GATT_NotifyEvent
 .text.gattRegisterServer
                0x00000000000071d8        0x6 E:\PD_Fan\PD_Fan\Software\EXAM\BLE\LIB\libCH57xBLE.a(gatt.o)
                0x00000000000071d8                gattRegisterServer
 .text.GATT_UpdateMTU
                0x00000000000071de       0x5c E:\PD_Fan\PD_Fan\Software\EXAM\BLE\LIB\libCH57xBLE.a(gatt.o)
                0x00000000000071de                GATT_UpdateMTU
 .text.GATT_bm_alloc
                0x000000000000723a       0xea E:\PD_Fan\PD_Fan\Software\EXAM\BLE\LIB\libCH57xBLE.a(gatt.o)
                0x000000000000723a                GATT_bm_alloc
 .text.GATT_ServiceChangedInd
                0x0000000000007324       0x94 E:\PD_Fan\PD_Fan\Software\EXAM\BLE\LIB\libCH57xBLE.a(gatt.o)
                0x0000000000007324                GATT_ServiceChangedInd
 .text.GATT_bm_free
                0x00000000000073b8       0x1c E:\PD_Fan\PD_Fan\Software\EXAM\BLE\LIB\libCH57xBLE.a(gatt.o)
                0x00000000000073b8                GATT_bm_free
 .text.GATT_RegisterForPeriMsgs
                0x00000000000073d4        0x6 E:\PD_Fan\PD_Fan\Software\EXAM\BLE\LIB\libCH57xBLE.a(gatt.o)
                0x00000000000073d4                GATT_RegisterForPeriMsgs
 .text.GATT_Init
                0x00000000000073da       0x30 E:\PD_Fan\PD_Fan\Software\EXAM\BLE\LIB\libCH57xBLE.a(gatt.o)
                0x00000000000073da                GATT_Init
 .text.GATT_ProcessEvent
                0x000000000000740a      0x136 E:\PD_Fan\PD_Fan\Software\EXAM\BLE\LIB\libCH57xBLE.a(gatt.o)
                0x000000000000740a                GATT_ProcessEvent
 .text.gattProcessExchangeMTUReq
                0x0000000000007540        0x4 E:\PD_Fan\PD_Fan\Software\EXAM\BLE\LIB\libCH57xBLE.a(gattservapp.o)
 .text.gattServApp_FindCharCfgItem
                0x0000000000007544       0x20 E:\PD_Fan\PD_Fan\Software\EXAM\BLE\LIB\libCH57xBLE.a(gattservapp.o)
 .text.gattServerHandleTimerCB
                0x0000000000007564       0x3c E:\PD_Fan\PD_Fan\Software\EXAM\BLE\LIB\libCH57xBLE.a(gattservapp.o)
 .text.GATTServApp_InitCharCfg.part.12
                0x00000000000075a0       0x1c E:\PD_Fan\PD_Fan\Software\EXAM\BLE\LIB\libCH57xBLE.a(gattservapp.o)
 .text.gattProcessExecuteWriteReq
                0x00000000000075bc        0x4 E:\PD_Fan\PD_Fan\Software\EXAM\BLE\LIB\libCH57xBLE.a(gattservapp.o)
 .text.GATTServApp_ParamInit
                0x00000000000075c0       0xd6 E:\PD_Fan\PD_Fan\Software\EXAM\BLE\LIB\libCH57xBLE.a(gattservapp.o)
                0x00000000000075c0                GATTServApp_ParamInit
 .text.GATTServApp_ReadCharCfg
                0x0000000000007696       0x18 E:\PD_Fan\PD_Fan\Software\EXAM\BLE\LIB\libCH57xBLE.a(gattservapp.o)
                0x0000000000007696                GATTServApp_ReadCharCfg
 .text.GATTServApp_WriteCharCfg
                0x00000000000076ae       0x3c E:\PD_Fan\PD_Fan\Software\EXAM\BLE\LIB\libCH57xBLE.a(gattservapp.o)
                0x00000000000076ae                GATTServApp_WriteCharCfg
 .text.GATTServApp_ProcessCCCWriteReq
                0x00000000000076ea       0x60 E:\PD_Fan\PD_Fan\Software\EXAM\BLE\LIB\libCH57xBLE.a(gattservapp.o)
                0x00000000000076ea                GATTServApp_ProcessCCCWriteReq
 .text.gattServApp_WriteAttrCB
                0x000000000000774a       0x34 E:\PD_Fan\PD_Fan\Software\EXAM\BLE\LIB\libCH57xBLE.a(gattservapp.o)
                0x000000000000774a                gattServApp_WriteAttrCB
 .text.GATTServApp_SendCCCUpdatedEvent
                0x000000000000777e       0x5e E:\PD_Fan\PD_Fan\Software\EXAM\BLE\LIB\libCH57xBLE.a(gattservapp.o)
                0x000000000000777e                GATTServApp_SendCCCUpdatedEvent
 .text.GATTServApp_SendServiceChangedInd
                0x00000000000077dc       0x36 E:\PD_Fan\PD_Fan\Software\EXAM\BLE\LIB\libCH57xBLE.a(gattservapp.o)
                0x00000000000077dc                GATTServApp_SendServiceChangedInd
 .text.gattServApp_ClearPrepareWriteQ
                0x0000000000007812       0x4c E:\PD_Fan\PD_Fan\Software\EXAM\BLE\LIB\libCH57xBLE.a(gattservapp.o)
                0x0000000000007812                gattServApp_ClearPrepareWriteQ
 .text.gattServApp_FindPrepareWriteQ
                0x000000000000785e       0x2c E:\PD_Fan\PD_Fan\Software\EXAM\BLE\LIB\libCH57xBLE.a(gattservapp.o)
                0x000000000000785e                gattServApp_FindPrepareWriteQ
 .text.gattServApp_FindServiceCBs
                0x000000000000788a       0x18 E:\PD_Fan\PD_Fan\Software\EXAM\BLE\LIB\libCH57xBLE.a(gattservapp.o)
                0x000000000000788a                gattServApp_FindServiceCBs
 .text.gattServApp_FindAuthorizeAttrCB
                0x00000000000078a2       0x16 E:\PD_Fan\PD_Fan\Software\EXAM\BLE\LIB\libCH57xBLE.a(gattservapp.o)
                0x00000000000078a2                gattServApp_FindAuthorizeAttrCB
 .text.gattServApp_IsWriteLong
                0x00000000000078b8       0xe6 E:\PD_Fan\PD_Fan\Software\EXAM\BLE\LIB\libCH57xBLE.a(gattservapp.o)
                0x00000000000078b8                gattServApp_IsWriteLong
 .text.gattFindService
                0x000000000000799e       0x1c E:\PD_Fan\PD_Fan\Software\EXAM\BLE\LIB\libCH57xBLE.a(gattservapp.o)
                0x000000000000799e                gattFindService
 .text.GATT_ServiceNumAttrs
                0x00000000000079ba       0x18 E:\PD_Fan\PD_Fan\Software\EXAM\BLE\LIB\libCH57xBLE.a(gattservapp.o)
                0x00000000000079ba                GATT_ServiceNumAttrs
 .text.GATT_ServiceEncKeySize
                0x00000000000079d2       0x18 E:\PD_Fan\PD_Fan\Software\EXAM\BLE\LIB\libCH57xBLE.a(gattservapp.o)
                0x00000000000079d2                GATT_ServiceEncKeySize
 .text.GATT_VerifyWritePermissions.part.7
                0x00000000000079ea       0x2e E:\PD_Fan\PD_Fan\Software\EXAM\BLE\LIB\libCH57xBLE.a(gattservapp.o)
 .text.gattResetServerInfo
                0x0000000000007a18       0x1c E:\PD_Fan\PD_Fan\Software\EXAM\BLE\LIB\libCH57xBLE.a(gattservapp.o)
                0x0000000000007a18                gattResetServerInfo
 .text.gattFindServerInfo
                0x0000000000007a34       0x28 E:\PD_Fan\PD_Fan\Software\EXAM\BLE\LIB\libCH57xBLE.a(gattservapp.o)
                0x0000000000007a34                gattFindServerInfo
 .text.gattServerHandleConnStatusCB
                0x0000000000007a5c       0x98 E:\PD_Fan\PD_Fan\Software\EXAM\BLE\LIB\libCH57xBLE.a(gattservapp.o)
                0x0000000000007a5c                gattServerHandleConnStatusCB
 .text.gattServerProcessMsgCB
                0x0000000000007af4      0x1c0 E:\PD_Fan\PD_Fan\Software\EXAM\BLE\LIB\libCH57xBLE.a(gattservapp.o)
                0x0000000000007af4                gattServerProcessMsgCB
 .text.gattServerNotifyTxCB
                0x0000000000007cb4       0x28 E:\PD_Fan\PD_Fan\Software\EXAM\BLE\LIB\libCH57xBLE.a(gattservapp.o)
 .text.GATT_FindHandle
                0x0000000000007cdc       0x4a E:\PD_Fan\PD_Fan\Software\EXAM\BLE\LIB\libCH57xBLE.a(gattservapp.o)
                0x0000000000007cdc                GATT_FindHandle
 .text.GATTServApp_WriteAttr
                0x0000000000007d26       0xa8 E:\PD_Fan\PD_Fan\Software\EXAM\BLE\LIB\libCH57xBLE.a(gattservapp.o)
                0x0000000000007d26                GATTServApp_WriteAttr
 .text.gattServApp_ProcessExecuteWriteReq
                0x0000000000007dce      0x100 E:\PD_Fan\PD_Fan\Software\EXAM\BLE\LIB\libCH57xBLE.a(gattservapp.o)
                0x0000000000007dce                gattServApp_ProcessExecuteWriteReq
 .text.GATTServApp_UpdateCharCfg
                0x0000000000007ece       0x1e E:\PD_Fan\PD_Fan\Software\EXAM\BLE\LIB\libCH57xBLE.a(gattservapp.o)
                0x0000000000007ece                GATTServApp_UpdateCharCfg
 .text.gattServApp_ProcessPrepareWriteReq
                0x0000000000007eec      0x10e E:\PD_Fan\PD_Fan\Software\EXAM\BLE\LIB\libCH57xBLE.a(gattservapp.o)
                0x0000000000007eec                gattServApp_ProcessPrepareWriteReq
 .text.gattServApp_ProcessWriteReq
                0x0000000000007ffa       0xb0 E:\PD_Fan\PD_Fan\Software\EXAM\BLE\LIB\libCH57xBLE.a(gattservapp.o)
                0x0000000000007ffa                gattServApp_ProcessWriteReq
 .text.GATT_Indication
                0x00000000000080aa       0xa4 E:\PD_Fan\PD_Fan\Software\EXAM\BLE\LIB\libCH57xBLE.a(gattservapp.o)
                0x00000000000080aa                GATT_Indication
 .text.GATT_FindHandleUUID
                0x000000000000814e       0x94 E:\PD_Fan\PD_Fan\Software\EXAM\BLE\LIB\libCH57xBLE.a(gattservapp.o)
                0x000000000000814e                GATT_FindHandleUUID
 .text.gattProcessReadByGrpTypeReq
                0x00000000000081e2       0x60 E:\PD_Fan\PD_Fan\Software\EXAM\BLE\LIB\libCH57xBLE.a(gattservapp.o)
 .text.gattProcessReadByTypeReq
                0x0000000000008242       0x34 E:\PD_Fan\PD_Fan\Software\EXAM\BLE\LIB\libCH57xBLE.a(gattservapp.o)
 .text.gattProcessFindByTypeValueReq
                0x0000000000008276       0x34 E:\PD_Fan\PD_Fan\Software\EXAM\BLE\LIB\libCH57xBLE.a(gattservapp.o)
 .text.gattProcessFindInfoReq
                0x00000000000082aa      0x1aa E:\PD_Fan\PD_Fan\Software\EXAM\BLE\LIB\libCH57xBLE.a(gattservapp.o)
 .text.GATT_Notification
                0x0000000000008454       0x70 E:\PD_Fan\PD_Fan\Software\EXAM\BLE\LIB\libCH57xBLE.a(gattservapp.o)
                0x0000000000008454                GATT_Notification
 .text.GATT_VerifyWritePermissions
                0x00000000000084c4       0x6a E:\PD_Fan\PD_Fan\Software\EXAM\BLE\LIB\libCH57xBLE.a(gattservapp.o)
                0x00000000000084c4                GATT_VerifyWritePermissions
 .text.gattProcessWriteReq
                0x000000000000852e       0x36 E:\PD_Fan\PD_Fan\Software\EXAM\BLE\LIB\libCH57xBLE.a(gattservapp.o)
 .text.GATT_VerifyPrepareWritePermissions
                0x0000000000008564       0x56 E:\PD_Fan\PD_Fan\Software\EXAM\BLE\LIB\libCH57xBLE.a(gattservapp.o)
                0x0000000000008564                GATT_VerifyPrepareWritePermissions
 .text.gattProcessPrepareWriteReq
                0x00000000000085ba       0x36 E:\PD_Fan\PD_Fan\Software\EXAM\BLE\LIB\libCH57xBLE.a(gattservapp.o)
 .text.GATT_FindNextAttr
                0x00000000000085f0       0xc2 E:\PD_Fan\PD_Fan\Software\EXAM\BLE\LIB\libCH57xBLE.a(gattservapp.o)
                0x00000000000085f0                GATT_FindNextAttr
 .text.GATTServApp_ReadAttr
                0x00000000000086b2      0x2e2 E:\PD_Fan\PD_Fan\Software\EXAM\BLE\LIB\libCH57xBLE.a(gattservapp.o)
                0x00000000000086b2                GATTServApp_ReadAttr
 .text.gattServApp_ProcessReadMultiReq
                0x0000000000008994      0x16e E:\PD_Fan\PD_Fan\Software\EXAM\BLE\LIB\libCH57xBLE.a(gattservapp.o)
                0x0000000000008994                gattServApp_ProcessReadMultiReq
 .text.gattServApp_ProcessFindByTypeValueReq
                0x0000000000008b02      0x19c E:\PD_Fan\PD_Fan\Software\EXAM\BLE\LIB\libCH57xBLE.a(gattservapp.o)
                0x0000000000008b02                gattServApp_ProcessFindByTypeValueReq
 .text.GATT_VerifyReadPermissions
                0x0000000000008c9e       0x68 E:\PD_Fan\PD_Fan\Software\EXAM\BLE\LIB\libCH57xBLE.a(gattservapp.o)
                0x0000000000008c9e                GATT_VerifyReadPermissions
 .text.gattProcessReadMultiReq
                0x0000000000008d06       0xae E:\PD_Fan\PD_Fan\Software\EXAM\BLE\LIB\libCH57xBLE.a(gattservapp.o)
 .text.gattProcessReadReq
                0x0000000000008db4       0x30 E:\PD_Fan\PD_Fan\Software\EXAM\BLE\LIB\libCH57xBLE.a(gattservapp.o)
 .text.gattServApp_ProcessReadByGrpTypeReq
                0x0000000000008de4      0x21c E:\PD_Fan\PD_Fan\Software\EXAM\BLE\LIB\libCH57xBLE.a(gattservapp.o)
                0x0000000000008de4                gattServApp_ProcessReadByGrpTypeReq
 .text.gattServApp_ProcessReadByTypeReq
                0x0000000000009000      0x1ae E:\PD_Fan\PD_Fan\Software\EXAM\BLE\LIB\libCH57xBLE.a(gattservapp.o)
                0x0000000000009000                gattServApp_ProcessReadByTypeReq
 .text.GATT_RegisterService
                0x00000000000091ae       0xfc E:\PD_Fan\PD_Fan\Software\EXAM\BLE\LIB\libCH57xBLE.a(gattservapp.o)
                0x00000000000091ae                GATT_RegisterService
 .text.GATTServApp_RegisterService
                0x00000000000092aa       0x8a E:\PD_Fan\PD_Fan\Software\EXAM\BLE\LIB\libCH57xBLE.a(gattservapp.o)
                0x00000000000092aa                GATTServApp_RegisterService
 .text.GATTServApp_AddService
                0x0000000000009334       0x2c E:\PD_Fan\PD_Fan\Software\EXAM\BLE\LIB\libCH57xBLE.a(gattservapp.o)
                0x0000000000009334                GATTServApp_AddService
 .text.GATTServApp_RegisterForMsg
                0x0000000000009360        0x6 E:\PD_Fan\PD_Fan\Software\EXAM\BLE\LIB\libCH57xBLE.a(gattservapp.o)
                0x0000000000009360                GATTServApp_RegisterForMsg
 .text.GATTServApp_InitCharCfg
                0x0000000000009366       0x28 E:\PD_Fan\PD_Fan\Software\EXAM\BLE\LIB\libCH57xBLE.a(gattservapp.o)
                0x0000000000009366                GATTServApp_InitCharCfg
 .text.gattServApp_HandleConnStatusCB
                0x000000000000938e       0x74 E:\PD_Fan\PD_Fan\Software\EXAM\BLE\LIB\libCH57xBLE.a(gattservapp.o)
                0x000000000000938e                gattServApp_HandleConnStatusCB
 .text.GATT_InitServer
                0x0000000000009402       0xf6 E:\PD_Fan\PD_Fan\Software\EXAM\BLE\LIB\libCH57xBLE.a(gattservapp.o)
                0x0000000000009402                GATT_InitServer
 .text.GATTServApp_Init
                0x00000000000094f8       0x34 E:\PD_Fan\PD_Fan\Software\EXAM\BLE\LIB\libCH57xBLE.a(gattservapp.o)
                0x00000000000094f8                GATTServApp_Init
 .text.GATTServApp_ProcessEvent
                0x000000000000952c      0x366 E:\PD_Fan\PD_Fan\Software\EXAM\BLE\LIB\libCH57xBLE.a(gattservapp.o)
                0x000000000000952c                GATTServApp_ProcessEvent
 .text.l2capAllocConnChannel
                0x0000000000009892       0xd8 E:\PD_Fan\PD_Fan\Software\EXAM\BLE\LIB\libCH57xBLE.a(l2cap.o)
                0x0000000000009892                l2capAllocConnChannel
 .text.l2capFindLocalCID
                0x000000000000996a       0x2c E:\PD_Fan\PD_Fan\Software\EXAM\BLE\LIB\libCH57xBLE.a(l2cap.o)
                0x000000000000996a                l2capFindLocalCID
 .text.l2capFindLocalId
                0x0000000000009996       0x30 E:\PD_Fan\PD_Fan\Software\EXAM\BLE\LIB\libCH57xBLE.a(l2cap.o)
                0x0000000000009996                l2capFindLocalId
 .text.l2capFindPsm
                0x00000000000099c6       0x2c E:\PD_Fan\PD_Fan\Software\EXAM\BLE\LIB\libCH57xBLE.a(l2cap.o)
                0x00000000000099c6                l2capFindPsm
 .text.l2capFindRemoteCID
                0x00000000000099f2       0x3c E:\PD_Fan\PD_Fan\Software\EXAM\BLE\LIB\libCH57xBLE.a(l2cap.o)
                0x00000000000099f2                l2capFindRemoteCID
 .text.l2capFreeChannel
                0x0000000000009a2e       0x4a E:\PD_Fan\PD_Fan\Software\EXAM\BLE\LIB\libCH57xBLE.a(l2cap.o)
                0x0000000000009a2e                l2capFreeChannel
 .text.l2capDisconnectChannel
                0x0000000000009a78       0x28 E:\PD_Fan\PD_Fan\Software\EXAM\BLE\LIB\libCH57xBLE.a(l2cap.o)
                0x0000000000009a78                l2capDisconnectChannel
 .text.l2capHandleTimerCB
                0x0000000000009aa0       0x2c E:\PD_Fan\PD_Fan\Software\EXAM\BLE\LIB\libCH57xBLE.a(l2cap.o)
                0x0000000000009aa0                l2capHandleTimerCB
 .text.l2capFreePendingPkt
                0x0000000000009acc       0x58 E:\PD_Fan\PD_Fan\Software\EXAM\BLE\LIB\libCH57xBLE.a(l2cap.o)
                0x0000000000009acc                l2capFreePendingPkt
 .text.l2capGetCoChannelInfo
                0x0000000000009b24       0x7e E:\PD_Fan\PD_Fan\Software\EXAM\BLE\LIB\libCH57xBLE.a(l2cap.o)
                0x0000000000009b24                l2capGetCoChannelInfo
 .text.l2capNumActiveChannnels
                0x0000000000009ba2       0x44 E:\PD_Fan\PD_Fan\Software\EXAM\BLE\LIB\libCH57xBLE.a(l2cap.o)
                0x0000000000009ba2                l2capNumActiveChannnels
 .text.l2capStartTimer
                0x0000000000009be6       0x1a E:\PD_Fan\PD_Fan\Software\EXAM\BLE\LIB\libCH57xBLE.a(l2cap.o)
                0x0000000000009be6                l2capStartTimer
 .text.l2capStopTimer
                0x0000000000009c00       0x1e E:\PD_Fan\PD_Fan\Software\EXAM\BLE\LIB\libCH57xBLE.a(l2cap.o)
                0x0000000000009c00                l2capStopTimer
 .text.l2capDisconnectAllChannels
                0x0000000000009c1e       0xdc E:\PD_Fan\PD_Fan\Software\EXAM\BLE\LIB\libCH57xBLE.a(l2cap.o)
                0x0000000000009c1e                l2capDisconnectAllChannels
 .text.l2capHandleConnStatusCB
                0x0000000000009cfa       0x3c E:\PD_Fan\PD_Fan\Software\EXAM\BLE\LIB\libCH57xBLE.a(l2cap.o)
                0x0000000000009cfa                l2capHandleConnStatusCB
 .text.l2capHandleRxError
                0x0000000000009d36        0x6 E:\PD_Fan\PD_Fan\Software\EXAM\BLE\LIB\libCH57xBLE.a(l2cap.o)
                0x0000000000009d36                l2capHandleRxError
 .text.L2CAP_GetMTU
                0x0000000000009d3c        0x6 E:\PD_Fan\PD_Fan\Software\EXAM\BLE\LIB\libCH57xBLE.a(l2cap.o)
                0x0000000000009d3c                L2CAP_GetMTU
 .text.L2CAP_HostNumCompletedPkts
                0x0000000000009d42       0x28 E:\PD_Fan\PD_Fan\Software\EXAM\BLE\LIB\libCH57xBLE.a(l2cap.o)
                0x0000000000009d42                L2CAP_HostNumCompletedPkts
 .text.L2CAP_ParseConnectReq
                0x0000000000009d6a       0x5e E:\PD_Fan\PD_Fan\Software\EXAM\BLE\LIB\libCH57xBLE.a(l2cap.o)
                0x0000000000009d6a                L2CAP_ParseConnectReq
 .text.L2CAP_ParseFlowCtrlCredit
                0x0000000000009dc8       0x2e E:\PD_Fan\PD_Fan\Software\EXAM\BLE\LIB\libCH57xBLE.a(l2cap.o)
                0x0000000000009dc8                L2CAP_ParseFlowCtrlCredit
 .text.L2CAP_RegisterApp
                0x0000000000009df6       0x30 E:\PD_Fan\PD_Fan\Software\EXAM\BLE\LIB\libCH57xBLE.a(l2cap.o)
                0x0000000000009df6                L2CAP_RegisterApp
 .text.L2CAP_SetBufSize
                0x0000000000009e26       0x1e E:\PD_Fan\PD_Fan\Software\EXAM\BLE\LIB\libCH57xBLE.a(l2cap.o)
                0x0000000000009e26                L2CAP_SetBufSize
 .text.L2CAP_bm_alloc
                0x0000000000009e44       0x30 E:\PD_Fan\PD_Fan\Software\EXAM\BLE\LIB\libCH57xBLE.a(l2cap.o)
                0x0000000000009e44                L2CAP_bm_alloc
 .text.L2CAP_Init
                0x0000000000009e74       0xf0 E:\PD_Fan\PD_Fan\Software\EXAM\BLE\LIB\libCH57xBLE.a(l2cap.o)
                0x0000000000009e74                L2CAP_Init
 .text.L2CAP_ProcessEvent
                0x0000000000009f64       0xc8 E:\PD_Fan\PD_Fan\Software\EXAM\BLE\LIB\libCH57xBLE.a(l2cap.o)
                0x0000000000009f64                L2CAP_ProcessEvent
 .text.l2capParseCmdReject
                0x000000000000a02c       0x5e E:\PD_Fan\PD_Fan\Software\EXAM\BLE\LIB\libCH57xBLE.a(l2cap_input.o)
                0x000000000000a02c                l2capParseCmdReject
 .text.l2capParseDisconnectReq
                0x000000000000a08a       0x2e E:\PD_Fan\PD_Fan\Software\EXAM\BLE\LIB\libCH57xBLE.a(l2cap_input.o)
                0x000000000000a08a                l2capParseDisconnectReq
 .text.l2capParseDisconnectRsp
                0x000000000000a0b8       0x2e E:\PD_Fan\PD_Fan\Software\EXAM\BLE\LIB\libCH57xBLE.a(l2cap_input.o)
                0x000000000000a0b8                l2capParseDisconnectRsp
 .text.L2CAP_ParseParamUpdateReq
                0x000000000000a0e6       0x4e E:\PD_Fan\PD_Fan\Software\EXAM\BLE\LIB\libCH57xBLE.a(l2cap_input.o)
                0x000000000000a0e6                L2CAP_ParseParamUpdateReq
 .text.l2capParseParamUpdateRsp
                0x000000000000a134       0x1e E:\PD_Fan\PD_Fan\Software\EXAM\BLE\LIB\libCH57xBLE.a(l2cap_input.o)
                0x000000000000a134                l2capParseParamUpdateRsp
 .text.l2capProcessConnectReq
                0x000000000000a152       0xfc E:\PD_Fan\PD_Fan\Software\EXAM\BLE\LIB\libCH57xBLE.a(l2cap_input.o)
                0x000000000000a152                l2capProcessConnectReq
 .text.l2capParseConnectRsp
                0x000000000000a24e       0x5e E:\PD_Fan\PD_Fan\Software\EXAM\BLE\LIB\libCH57xBLE.a(l2cap_input.o)
                0x000000000000a24e                l2capParseConnectRsp
 .text.l2capParseSignalHdr
                0x000000000000a2ac       0x22 E:\PD_Fan\PD_Fan\Software\EXAM\BLE\LIB\libCH57xBLE.a(l2cap_input.o)
                0x000000000000a2ac                l2capParseSignalHdr
 .text.l2capParsePacket
                0x000000000000a2ce       0x8c E:\PD_Fan\PD_Fan\Software\EXAM\BLE\LIB\libCH57xBLE.a(l2cap_input.o)
                0x000000000000a2ce                l2capParsePacket
 .text.l2capProcessReq
                0x000000000000a35a      0x15a E:\PD_Fan\PD_Fan\Software\EXAM\BLE\LIB\libCH57xBLE.a(l2cap_input.o)
                0x000000000000a35a                l2capProcessReq
 .text.l2capProcessRsp
                0x000000000000a4b4      0x150 E:\PD_Fan\PD_Fan\Software\EXAM\BLE\LIB\libCH57xBLE.a(l2cap_input.o)
                0x000000000000a4b4                l2capProcessRsp
 .text.l2capProcessRxData
                0x000000000000a604       0xf8 E:\PD_Fan\PD_Fan\Software\EXAM\BLE\LIB\libCH57xBLE.a(l2cap_input.o)
                0x000000000000a604                l2capProcessRxData
 .text.l2capNotifyData
                0x000000000000a6fc       0x5a E:\PD_Fan\PD_Fan\Software\EXAM\BLE\LIB\libCH57xBLE.a(l2cap_output.o)
                0x000000000000a6fc                l2capNotifyData
 .text.l2capNotifySignal
                0x000000000000a756       0x76 E:\PD_Fan\PD_Fan\Software\EXAM\BLE\LIB\libCH57xBLE.a(l2cap_output.o)
                0x000000000000a756                l2capNotifySignal
 .text.l2capNotifyCreditEvt
                0x000000000000a7cc       0x9c E:\PD_Fan\PD_Fan\Software\EXAM\BLE\LIB\libCH57xBLE.a(l2cap_output.o)
                0x000000000000a7cc                l2capNotifyCreditEvt
 .text.l2capNotifyChannelEstEvt
                0x000000000000a868       0x58 E:\PD_Fan\PD_Fan\Software\EXAM\BLE\LIB\libCH57xBLE.a(l2cap_output.o)
                0x000000000000a868                l2capNotifyChannelEstEvt
 .text.l2capNotifyChannelTermEvt
                0x000000000000a8c0       0x3e E:\PD_Fan\PD_Fan\Software\EXAM\BLE\LIB\libCH57xBLE.a(l2cap_output.o)
                0x000000000000a8c0                l2capNotifyChannelTermEvt
 .text.l2capNotifyEvent
                0x000000000000a8fe       0x66 E:\PD_Fan\PD_Fan\Software\EXAM\BLE\LIB\libCH57xBLE.a(l2cap_output.o)
                0x000000000000a8fe                l2capNotifyEvent
 .text.l2capStoreFCPkt
                0x000000000000a964       0x32 E:\PD_Fan\PD_Fan\Software\EXAM\BLE\LIB\libCH57xBLE.a(l2cap_output.o)
                0x000000000000a964                l2capStoreFCPkt
 .text.l2capFreeTxSDU
                0x000000000000a996       0x9a E:\PD_Fan\PD_Fan\Software\EXAM\BLE\LIB\libCH57xBLE.a(l2cap_output.o)
                0x000000000000a996                l2capFreeTxSDU
 .text.l2capReassembleSegment
                0x000000000000aa30      0x174 E:\PD_Fan\PD_Fan\Software\EXAM\BLE\LIB\libCH57xBLE.a(l2cap_output.o)
                0x000000000000aa30                l2capReassembleSegment
 .text.l2capEncapSendData
                0x000000000000aba4       0xec E:\PD_Fan\PD_Fan\Software\EXAM\BLE\LIB\libCH57xBLE.a(l2cap_output.o)
                0x000000000000aba4                l2capEncapSendData
 .text.l2capSendFCPkt.part.3
                0x000000000000ac90       0x70 E:\PD_Fan\PD_Fan\Software\EXAM\BLE\LIB\libCH57xBLE.a(l2cap_output.o)
 .text.l2capSendSegment
                0x000000000000ad00      0x108 E:\PD_Fan\PD_Fan\Software\EXAM\BLE\LIB\libCH57xBLE.a(l2cap_output.o)
                0x000000000000ad00                l2capSendSegment
 .text.l2capSendNextSegment
                0x000000000000ae08       0xb4 E:\PD_Fan\PD_Fan\Software\EXAM\BLE\LIB\libCH57xBLE.a(l2cap_output.o)
                0x000000000000ae08                l2capSendNextSegment
 .text.l2capSendPkt
                0x000000000000aebc       0x3a E:\PD_Fan\PD_Fan\Software\EXAM\BLE\LIB\libCH57xBLE.a(l2cap_output.o)
                0x000000000000aebc                l2capSendPkt
 .text.L2CAP_SendData
                0x000000000000aef6       0x82 E:\PD_Fan\PD_Fan\Software\EXAM\BLE\LIB\libCH57xBLE.a(l2cap_output.o)
                0x000000000000aef6                L2CAP_SendData
 .text.l2capSendCmd
                0x000000000000af78       0x8a E:\PD_Fan\PD_Fan\Software\EXAM\BLE\LIB\libCH57xBLE.a(l2cap_output.o)
                0x000000000000af78                l2capSendCmd
 .text.l2capSendReq
                0x000000000000b002       0xbc E:\PD_Fan\PD_Fan\Software\EXAM\BLE\LIB\libCH57xBLE.a(l2cap_output.o)
                0x000000000000b002                l2capSendReq
 .text.l2capBuildDisconnectReq
                0x000000000000b0be       0x28 E:\PD_Fan\PD_Fan\Software\EXAM\BLE\LIB\libCH57xBLE.a(l2cap_sdu.o)
 .text.l2capBuildParamUpdateReq
                0x000000000000b0e6       0x4c E:\PD_Fan\PD_Fan\Software\EXAM\BLE\LIB\libCH57xBLE.a(l2cap_sdu.o)
 .text.l2capBuildParamUpdateRsp
                0x000000000000b132       0x16 E:\PD_Fan\PD_Fan\Software\EXAM\BLE\LIB\libCH57xBLE.a(l2cap_sdu.o)
 .text.l2capBuildConnectRsp
                0x000000000000b148       0x5e E:\PD_Fan\PD_Fan\Software\EXAM\BLE\LIB\libCH57xBLE.a(l2cap_sdu.o)
 .text.l2capBuildCmdReject
                0x000000000000b1a6       0x62 E:\PD_Fan\PD_Fan\Software\EXAM\BLE\LIB\libCH57xBLE.a(l2cap_sdu.o)
                0x000000000000b1a6                l2capBuildCmdReject
 .text.l2capBuildDisconnectRsp
                0x000000000000b208       0x28 E:\PD_Fan\PD_Fan\Software\EXAM\BLE\LIB\libCH57xBLE.a(l2cap_sdu.o)
                0x000000000000b208                l2capBuildDisconnectRsp
 .text.l2capSendConnectRsp
                0x000000000000b230       0xa2 E:\PD_Fan\PD_Fan\Software\EXAM\BLE\LIB\libCH57xBLE.a(l2cap_sdu.o)
                0x000000000000b230                l2capSendConnectRsp
 .text.L2CAP_CmdReject
                0x000000000000b2d2       0x12 E:\PD_Fan\PD_Fan\Software\EXAM\BLE\LIB\libCH57xBLE.a(l2cap_sdu.o)
                0x000000000000b2d2                L2CAP_CmdReject
 .text.L2CAP_DisconnectReq
                0x000000000000b2e4       0x2a E:\PD_Fan\PD_Fan\Software\EXAM\BLE\LIB\libCH57xBLE.a(l2cap_sdu.o)
                0x000000000000b2e4                L2CAP_DisconnectReq
 .text.L2CAP_ConnParamUpdateReq
                0x000000000000b30e       0x16 E:\PD_Fan\PD_Fan\Software\EXAM\BLE\LIB\libCH57xBLE.a(l2cap_sdu.o)
                0x000000000000b30e                L2CAP_ConnParamUpdateReq
 .text.L2CAP_ConnParamUpdateRsp
                0x000000000000b324       0x12 E:\PD_Fan\PD_Fan\Software\EXAM\BLE\LIB\libCH57xBLE.a(l2cap_sdu.o)
                0x000000000000b324                L2CAP_ConnParamUpdateRsp
 .text.reportStatusChange
                0x000000000000b336       0x3e E:\PD_Fan\PD_Fan\Software\EXAM\BLE\LIB\libCH57xBLE.a(linkdb.o)
 .text.linkDB_Init
                0x000000000000b374       0x88 E:\PD_Fan\PD_Fan\Software\EXAM\BLE\LIB\libCH57xBLE.a(linkdb.o)
                0x000000000000b374                linkDB_Init
 .text.linkDB_Find
                0x000000000000b3fc       0x2c E:\PD_Fan\PD_Fan\Software\EXAM\BLE\LIB\libCH57xBLE.a(linkdb.o)
                0x000000000000b3fc                linkDB_Find
 .text.linkDB_Authen
                0x000000000000b428       0x5c E:\PD_Fan\PD_Fan\Software\EXAM\BLE\LIB\libCH57xBLE.a(linkdb.o)
                0x000000000000b428                linkDB_Authen
 .text.linkDB_FindByAddr
                0x000000000000b484       0x76 E:\PD_Fan\PD_Fan\Software\EXAM\BLE\LIB\libCH57xBLE.a(linkdb.o)
                0x000000000000b484                linkDB_FindByAddr
 .text.linkDB_FindFirst
                0x000000000000b4fa       0x38 E:\PD_Fan\PD_Fan\Software\EXAM\BLE\LIB\libCH57xBLE.a(linkdb.o)
                0x000000000000b4fa                linkDB_FindFirst
 .text.linkDB_MTU
                0x000000000000b532       0x18 E:\PD_Fan\PD_Fan\Software\EXAM\BLE\LIB\libCH57xBLE.a(linkdb.o)
                0x000000000000b532                linkDB_MTU
 .text.linkDB_NumActive
                0x000000000000b54a       0x2e E:\PD_Fan\PD_Fan\Software\EXAM\BLE\LIB\libCH57xBLE.a(linkdb.o)
                0x000000000000b54a                linkDB_NumActive
 .text.linkDB_NumConns
                0x000000000000b578        0x6 E:\PD_Fan\PD_Fan\Software\EXAM\BLE\LIB\libCH57xBLE.a(linkdb.o)
                0x000000000000b578                linkDB_NumConns
 .text.linkDB_Register
                0x000000000000b57e       0x28 E:\PD_Fan\PD_Fan\Software\EXAM\BLE\LIB\libCH57xBLE.a(linkdb.o)
                0x000000000000b57e                linkDB_Register
 .text.linkDB_Remove
                0x000000000000b5a6       0x48 E:\PD_Fan\PD_Fan\Software\EXAM\BLE\LIB\libCH57xBLE.a(linkdb.o)
                0x000000000000b5a6                linkDB_Remove
 .text.linkDB_Role
                0x000000000000b5ee       0x18 E:\PD_Fan\PD_Fan\Software\EXAM\BLE\LIB\libCH57xBLE.a(linkdb.o)
                0x000000000000b5ee                linkDB_Role
 .text.linkDB_State
                0x000000000000b606       0x30 E:\PD_Fan\PD_Fan\Software\EXAM\BLE\LIB\libCH57xBLE.a(linkdb.o)
                0x000000000000b606                linkDB_State
 .text.linkDB_UpdateMTU
                0x000000000000b636       0x28 E:\PD_Fan\PD_Fan\Software\EXAM\BLE\LIB\libCH57xBLE.a(linkdb.o)
                0x000000000000b636                linkDB_UpdateMTU
 .text.linkDB_PerformFunc
                0x000000000000b65e       0x52 E:\PD_Fan\PD_Fan\Software\EXAM\BLE\LIB\libCH57xBLE.a(linkdb.o)
                0x000000000000b65e                linkDB_PerformFunc
 .text.linkDB_PeripheralLinkNum
                0x000000000000b6b0       0x3e E:\PD_Fan\PD_Fan\Software\EXAM\BLE\LIB\libCH57xBLE.a(linkdb.o)
                0x000000000000b6b0                linkDB_PeripheralLinkNum
 .text.linkDB_GetSMEvtID
                0x000000000000b6ee       0x58 E:\PD_Fan\PD_Fan\Software\EXAM\BLE\LIB\libCH57xBLE.a(linkdb.o)
                0x000000000000b6ee                linkDB_GetSMEvtID
 .text.linkDB_Add
                0x000000000000b746       0xb2 E:\PD_Fan\PD_Fan\Software\EXAM\BLE\LIB\libCH57xBLE.a(linkdb.o)
                0x000000000000b746                linkDB_Add
 .text.linkDB_GetHandleFromSMEvtID
                0x000000000000b7f8       0x32 E:\PD_Fan\PD_Fan\Software\EXAM\BLE\LIB\libCH57xBLE.a(linkdb.o)
                0x000000000000b7f8                linkDB_GetHandleFromSMEvtID
 .text.linkDB_GetPairingParam
                0x000000000000b82a       0x54 E:\PD_Fan\PD_Fan\Software\EXAM\BLE\LIB\libCH57xBLE.a(linkdb.o)
                0x000000000000b82a                linkDB_GetPairingParam
 .text.linkDB_NeedSendKey
                0x000000000000b87e       0x42 E:\PD_Fan\PD_Fan\Software\EXAM\BLE\LIB\libCH57xBLE.a(linkdb.o)
                0x000000000000b87e                linkDB_NeedSendKey
 .text.smpBuildPairingFailed
                0x000000000000b8c0       0x1a E:\PD_Fan\PD_Fan\Software\EXAM\BLE\LIB\libCH57xBLE.a(sm.o)
                0x000000000000b8c0                smpBuildPairingFailed
 .text.SM_StartEncryption
                0x000000000000b8da       0x98 E:\PD_Fan\PD_Fan\Software\EXAM\BLE\LIB\libCH57xBLE.a(sm.o)
                0x000000000000b8da                SM_StartEncryption
 .text.smpBuildEncInfo
                0x000000000000b972       0x30 E:\PD_Fan\PD_Fan\Software\EXAM\BLE\LIB\libCH57xBLE.a(sm.o)
                0x000000000000b972                smpBuildEncInfo
 .text.smpBuildIdentityAddrInfo
                0x000000000000b9a2       0x3a E:\PD_Fan\PD_Fan\Software\EXAM\BLE\LIB\libCH57xBLE.a(sm.o)
                0x000000000000b9a2                smpBuildIdentityAddrInfo
 .text.smpBuildIdentityInfo
                0x000000000000b9dc       0x30 E:\PD_Fan\PD_Fan\Software\EXAM\BLE\LIB\libCH57xBLE.a(sm.o)
                0x000000000000b9dc                smpBuildIdentityInfo
 .text.smpBuildMasterID
                0x000000000000ba0c       0x44 E:\PD_Fan\PD_Fan\Software\EXAM\BLE\LIB\libCH57xBLE.a(sm.o)
                0x000000000000ba0c                smpBuildMasterID
 .text.smpBuildPairingConfirm
                0x000000000000ba50       0x30 E:\PD_Fan\PD_Fan\Software\EXAM\BLE\LIB\libCH57xBLE.a(sm.o)
                0x000000000000ba50                smpBuildPairingConfirm
 .text.smpBuildPairingRandom
                0x000000000000ba80       0x30 E:\PD_Fan\PD_Fan\Software\EXAM\BLE\LIB\libCH57xBLE.a(sm.o)
                0x000000000000ba80                smpBuildPairingRandom
 .text.smpBuildSigningInfo
                0x000000000000bab0       0x30 E:\PD_Fan\PD_Fan\Software\EXAM\BLE\LIB\libCH57xBLE.a(sm.o)
                0x000000000000bab0                smpBuildSigningInfo
 .text.SM_ParamInit
                0x000000000000bae0       0x5a E:\PD_Fan\PD_Fan\Software\EXAM\BLE\LIB\libCH57xBLE.a(sm.o)
                0x000000000000bae0                SM_ParamInit
 .text.smDetermineKeySize
                0x000000000000bb3a       0x20 E:\PD_Fan\PD_Fan\Software\EXAM\BLE\LIB\libCH57xBLE.a(sm.o)
                0x000000000000bb3a                smDetermineKeySize
 .text.smProcessRandComplete
                0x000000000000bb5a       0x9e E:\PD_Fan\PD_Fan\Software\EXAM\BLE\LIB\libCH57xBLE.a(sm.o)
                0x000000000000bb5a                smProcessRandComplete
 .text.smSavePairInfo
                0x000000000000bbf8      0x186 E:\PD_Fan\PD_Fan\Software\EXAM\BLE\LIB\libCH57xBLE.a(sm.o)
                0x000000000000bbf8                smSavePairInfo
 .text.smSetPairingReqRsp
                0x000000000000bd7e       0x38 E:\PD_Fan\PD_Fan\Software\EXAM\BLE\LIB\libCH57xBLE.a(sm.o)
                0x000000000000bd7e                smSetPairingReqRsp
 .text.smStartEncryption
                0x000000000000bdb6       0x16 E:\PD_Fan\PD_Fan\Software\EXAM\BLE\LIB\libCH57xBLE.a(sm.o)
                0x000000000000bdb6                smStartEncryption
 .text.smStartRspTimer
                0x000000000000bdcc       0x36 E:\PD_Fan\PD_Fan\Software\EXAM\BLE\LIB\libCH57xBLE.a(sm.o)
                0x000000000000bdcc                smStartRspTimer
 .text.smSendSMMsg
                0x000000000000be02       0x5c E:\PD_Fan\PD_Fan\Software\EXAM\BLE\LIB\libCH57xBLE.a(sm.o)
                0x000000000000be02                smSendSMMsg
 .text.smGenerateConfirm
                0x000000000000be5e       0x34 E:\PD_Fan\PD_Fan\Software\EXAM\BLE\LIB\libCH57xBLE.a(sm.o)
                0x000000000000be5e                smGenerateConfirm
 .text.smGenerateRandMsg
                0x000000000000be92       0x34 E:\PD_Fan\PD_Fan\Software\EXAM\BLE\LIB\libCH57xBLE.a(sm.o)
                0x000000000000be92                smGenerateRandMsg
 .text.smPairingSendEncInfo
                0x000000000000bec6       0x10 E:\PD_Fan\PD_Fan\Software\EXAM\BLE\LIB\libCH57xBLE.a(sm.o)
                0x000000000000bec6                smPairingSendEncInfo
 .text.smPairingSendIdentityAddrInfo
                0x000000000000bed6       0x38 E:\PD_Fan\PD_Fan\Software\EXAM\BLE\LIB\libCH57xBLE.a(sm.o)
                0x000000000000bed6                smPairingSendIdentityAddrInfo
 .text.smPairingSendIdentityInfo
                0x000000000000bf0e       0x10 E:\PD_Fan\PD_Fan\Software\EXAM\BLE\LIB\libCH57xBLE.a(sm.o)
                0x000000000000bf0e                smPairingSendIdentityInfo
 .text.smPairingSendMasterID
                0x000000000000bf1e       0x38 E:\PD_Fan\PD_Fan\Software\EXAM\BLE\LIB\libCH57xBLE.a(sm.o)
                0x000000000000bf1e                smPairingSendMasterID
 .text.smPairingSendSingingInfo
                0x000000000000bf56       0x10 E:\PD_Fan\PD_Fan\Software\EXAM\BLE\LIB\libCH57xBLE.a(sm.o)
                0x000000000000bf56                smPairingSendSingingInfo
 .text.smInitiatorSendNextKeyInfo
                0x000000000000bf66      0x1c2 E:\PD_Fan\PD_Fan\Software\EXAM\BLE\LIB\libCH57xBLE.a(sm.o)
                0x000000000000bf66                smInitiatorSendNextKeyInfo
 .text.smResponderSendNextKeyInfo
                0x000000000000c128      0x216 E:\PD_Fan\PD_Fan\Software\EXAM\BLE\LIB\libCH57xBLE.a(sm.o)
                0x000000000000c128                smResponderSendNextKeyInfo
 .text.smGeneratePairingReqRsp
                0x000000000000c33e       0x3e E:\PD_Fan\PD_Fan\Software\EXAM\BLE\LIB\libCH57xBLE.a(sm.o)
                0x000000000000c33e                smGeneratePairingReqRsp
 .text.smStopRspTimer
                0x000000000000c37c        0xa E:\PD_Fan\PD_Fan\Software\EXAM\BLE\LIB\libCH57xBLE.a(sm.o)
                0x000000000000c37c                smStopRspTimer
 .text.smFreePairingParams
                0x000000000000c386       0x68 E:\PD_Fan\PD_Fan\Software\EXAM\BLE\LIB\libCH57xBLE.a(sm.o)
                0x000000000000c386                smFreePairingParams
 .text.smEndPairing
                0x000000000000c3ee       0x5c E:\PD_Fan\PD_Fan\Software\EXAM\BLE\LIB\libCH57xBLE.a(sm.o)
                0x000000000000c3ee                smEndPairing
 .text.setupInitiatorKeys
                0x000000000000c44a       0x82 E:\PD_Fan\PD_Fan\Software\EXAM\BLE\LIB\libCH57xBLE.a(sm.o)
                0x000000000000c44a                setupInitiatorKeys
 .text.smNextPairingState
                0x000000000000c4cc       0x56 E:\PD_Fan\PD_Fan\Software\EXAM\BLE\LIB\libCH57xBLE.a(sm.o)
                0x000000000000c4cc                smNextPairingState
 .text.smProcessEncryptChange
                0x000000000000c522       0xde E:\PD_Fan\PD_Fan\Software\EXAM\BLE\LIB\libCH57xBLE.a(sm.o)
                0x000000000000c522                smProcessEncryptChange
 .text.smSendFailAndEnd
                0x000000000000c600       0x38 E:\PD_Fan\PD_Fan\Software\EXAM\BLE\LIB\libCH57xBLE.a(sm.o)
                0x000000000000c600                smSendFailAndEnd
 .text.smProcessPairingReq
                0x000000000000c638       0x3c E:\PD_Fan\PD_Fan\Software\EXAM\BLE\LIB\libCH57xBLE.a(sm.o)
                0x000000000000c638                smProcessPairingReq
 .text.smLinkCheck
                0x000000000000c674       0x34 E:\PD_Fan\PD_Fan\Software\EXAM\BLE\LIB\libCH57xBLE.a(sm.o)
                0x000000000000c674                smLinkCheck
 .text.smTimedOut
                0x000000000000c6a8       0x20 E:\PD_Fan\PD_Fan\Software\EXAM\BLE\LIB\libCH57xBLE.a(sm.o)
                0x000000000000c6a8                smTimedOut
 .text.smUint8ToAuthReq
                0x000000000000c6c8        0x6 E:\PD_Fan\PD_Fan\Software\EXAM\BLE\LIB\libCH57xBLE.a(sm.o)
                0x000000000000c6c8                smUint8ToAuthReq
 .text.sm_ah    0x000000000000c6ce       0x80 E:\PD_Fan\PD_Fan\Software\EXAM\BLE\LIB\libCH57xBLE.a(sm.o)
                0x000000000000c6ce                sm_ah
 .text.sm_xor   0x000000000000c74e       0x24 E:\PD_Fan\PD_Fan\Software\EXAM\BLE\LIB\libCH57xBLE.a(sm.o)
                0x000000000000c74e                sm_xor
 .text.sm_c1new
                0x000000000000c772      0x11c E:\PD_Fan\PD_Fan\Software\EXAM\BLE\LIB\libCH57xBLE.a(sm.o)
                0x000000000000c772                sm_c1new
 .text.sm_s1    0x000000000000c88e       0x86 E:\PD_Fan\PD_Fan\Software\EXAM\BLE\LIB\libCH57xBLE.a(sm.o)
                0x000000000000c88e                sm_s1
 .text.smResponderProcessLTKReq
                0x000000000000c914      0x1e6 E:\PD_Fan\PD_Fan\Software\EXAM\BLE\LIB\libCH57xBLE.a(sm.o)
                0x000000000000c914                smResponderProcessLTKReq
 .text.xor_128  0x000000000000cafa       0x28 E:\PD_Fan\PD_Fan\Software\EXAM\BLE\LIB\libCH57xBLE.a(sm.o)
                0x000000000000cafa                xor_128
 .text.leftshift_onebit
                0x000000000000cb22       0x2e E:\PD_Fan\PD_Fan\Software\EXAM\BLE\LIB\libCH57xBLE.a(sm.o)
                0x000000000000cb22                leftshift_onebit
 .text.padding  0x000000000000cb50       0x38 E:\PD_Fan\PD_Fan\Software\EXAM\BLE\LIB\libCH57xBLE.a(sm.o)
                0x000000000000cb50                padding
 .text.generate_subkey
                0x000000000000cb88       0xd0 E:\PD_Fan\PD_Fan\Software\EXAM\BLE\LIB\libCH57xBLE.a(sm.o)
                0x000000000000cb88                generate_subkey
 .text.sm_CMAC  0x000000000000cc58      0x16e E:\PD_Fan\PD_Fan\Software\EXAM\BLE\LIB\libCH57xBLE.a(sm.o)
                0x000000000000cc58                sm_CMAC
 .text.smpBuildPairingReqRsp
                0x000000000000cdc6       0xc6 E:\PD_Fan\PD_Fan\Software\EXAM\BLE\LIB\libCH57xBLE.a(sm.o)
                0x000000000000cdc6                smpBuildPairingReqRsp
 .text.smpBuildPairingReq
                0x000000000000ce8c        0xa E:\PD_Fan\PD_Fan\Software\EXAM\BLE\LIB\libCH57xBLE.a(sm.o)
                0x000000000000ce8c                smpBuildPairingReq
 .text.smpBuildPairingRsp
                0x000000000000ce96        0xa E:\PD_Fan\PD_Fan\Software\EXAM\BLE\LIB\libCH57xBLE.a(sm.o)
                0x000000000000ce96                smpBuildPairingRsp
 .text.sm_c1    0x000000000000cea0       0xb4 E:\PD_Fan\PD_Fan\Software\EXAM\BLE\LIB\libCH57xBLE.a(sm.o)
                0x000000000000cea0                sm_c1
 .text.smpBuildSecurityReq
                0x000000000000cf54       0x1a E:\PD_Fan\PD_Fan\Software\EXAM\BLE\LIB\libCH57xBLE.a(sm.o)
                0x000000000000cf54                smpBuildSecurityReq
 .text.smpInitiatorProcessPairingRsp
                0x000000000000cf6e      0x116 E:\PD_Fan\PD_Fan\Software\EXAM\BLE\LIB\libCH57xBLE.a(sm.o)
                0x000000000000cf6e                smpInitiatorProcessPairingRsp
 .text.smpInitiatorProcessIncoming
                0x000000000000d084      0x23e E:\PD_Fan\PD_Fan\Software\EXAM\BLE\LIB\libCH57xBLE.a(sm.o)
                0x000000000000d084                smpInitiatorProcessIncoming
 .text.smpParseEncInfo
                0x000000000000d2c2       0x2a E:\PD_Fan\PD_Fan\Software\EXAM\BLE\LIB\libCH57xBLE.a(sm.o)
                0x000000000000d2c2                smpParseEncInfo
 .text.smpParseIdentityAddrInfo
                0x000000000000d2ec       0x34 E:\PD_Fan\PD_Fan\Software\EXAM\BLE\LIB\libCH57xBLE.a(sm.o)
                0x000000000000d2ec                smpParseIdentityAddrInfo
 .text.smpParseIdentityInfo
                0x000000000000d320       0x2a E:\PD_Fan\PD_Fan\Software\EXAM\BLE\LIB\libCH57xBLE.a(sm.o)
                0x000000000000d320                smpParseIdentityInfo
 .text.smpParseMasterID
                0x000000000000d34a       0x3c E:\PD_Fan\PD_Fan\Software\EXAM\BLE\LIB\libCH57xBLE.a(sm.o)
                0x000000000000d34a                smpParseMasterID
 .text.smpParsePairingConfirm
                0x000000000000d386       0x2a E:\PD_Fan\PD_Fan\Software\EXAM\BLE\LIB\libCH57xBLE.a(sm.o)
                0x000000000000d386                smpParsePairingConfirm
 .text.smpParsePairingFailed
                0x000000000000d3b0       0x22 E:\PD_Fan\PD_Fan\Software\EXAM\BLE\LIB\libCH57xBLE.a(sm.o)
                0x000000000000d3b0                smpParsePairingFailed
 .text.smpParsePairingRandom
                0x000000000000d3d2       0x2a E:\PD_Fan\PD_Fan\Software\EXAM\BLE\LIB\libCH57xBLE.a(sm.o)
                0x000000000000d3d2                smpParsePairingRandom
 .text.smpParsePairingReq
                0x000000000000d3fc      0x118 E:\PD_Fan\PD_Fan\Software\EXAM\BLE\LIB\libCH57xBLE.a(sm.o)
                0x000000000000d3fc                smpParsePairingReq
 .text.smpParseSigningInfo
                0x000000000000d514       0x2a E:\PD_Fan\PD_Fan\Software\EXAM\BLE\LIB\libCH57xBLE.a(sm.o)
                0x000000000000d514                smpParseSigningInfo
 .text.smProcessDataMsg
                0x000000000000d53e       0xec E:\PD_Fan\PD_Fan\Software\EXAM\BLE\LIB\libCH57xBLE.a(sm.o)
                0x000000000000d53e                smProcessDataMsg
 .text.smProcessTMOSMsg
                0x000000000000d62a       0xd4 E:\PD_Fan\PD_Fan\Software\EXAM\BLE\LIB\libCH57xBLE.a(sm.o)
                0x000000000000d62a                smProcessTMOSMsg
 .text.smpResponderProcessPairingReq
                0x000000000000d6fe       0xd6 E:\PD_Fan\PD_Fan\Software\EXAM\BLE\LIB\libCH57xBLE.a(sm.o)
                0x000000000000d6fe                smpResponderProcessPairingReq
 .text.smpResponderProcessIncoming
                0x000000000000d7d4      0x24c E:\PD_Fan\PD_Fan\Software\EXAM\BLE\LIB\libCH57xBLE.a(sm.o)
                0x000000000000d7d4                smpResponderProcessIncoming
 .text.SM_CalcRandomAddr
                0x000000000000da20       0x54 E:\PD_Fan\PD_Fan\Software\EXAM\BLE\LIB\libCH57xBLE.a(sm.o)
                0x000000000000da20                SM_CalcRandomAddr
 .text.SM_GenerateAuthenSig
                0x000000000000da74       0xda E:\PD_Fan\PD_Fan\Software\EXAM\BLE\LIB\libCH57xBLE.a(sm.o)
                0x000000000000da74                SM_GenerateAuthenSig
 .text.SM_Init  0x000000000000db4e       0x26 E:\PD_Fan\PD_Fan\Software\EXAM\BLE\LIB\libCH57xBLE.a(sm.o)
                0x000000000000db4e                SM_Init
 .text.SM_InitiatorInit
                0x000000000000db74       0x1a E:\PD_Fan\PD_Fan\Software\EXAM\BLE\LIB\libCH57xBLE.a(sm.o)
                0x000000000000db74                SM_InitiatorInit
 .text.SM_PasskeyUpdate
                0x000000000000db8e       0xc8 E:\PD_Fan\PD_Fan\Software\EXAM\BLE\LIB\libCH57xBLE.a(sm.o)
                0x000000000000db8e                SM_PasskeyUpdate
 .text.SM_ProcessEvent
                0x000000000000dc56       0x9e E:\PD_Fan\PD_Fan\Software\EXAM\BLE\LIB\libCH57xBLE.a(sm.o)
                0x000000000000dc56                SM_ProcessEvent
 .text.SM_ResolveRandomAddrs
                0x000000000000dcf4       0x5a E:\PD_Fan\PD_Fan\Software\EXAM\BLE\LIB\libCH57xBLE.a(sm.o)
                0x000000000000dcf4                SM_ResolveRandomAddrs
 .text.SM_ResponderInit
                0x000000000000dd4e       0x1a E:\PD_Fan\PD_Fan\Software\EXAM\BLE\LIB\libCH57xBLE.a(sm.o)
                0x000000000000dd4e                SM_ResponderInit
 .text.SM_StartPairing
                0x000000000000dd68       0xcc E:\PD_Fan\PD_Fan\Software\EXAM\BLE\LIB\libCH57xBLE.a(sm.o)
                0x000000000000dd68                SM_StartPairing
 .text.SM_VerifyAuthenSig
                0x000000000000de34      0x138 E:\PD_Fan\PD_Fan\Software\EXAM\BLE\LIB\libCH57xBLE.a(sm.o)
                0x000000000000de34                SM_VerifyAuthenSig
 .text.HOST_LE_ConnectionCompleteEvent
                0x000000000000df6c       0xc2 E:\PD_Fan\PD_Fan\Software\EXAM\BLE\LIB\libCH57xBLE.a(host_input.o)
                0x000000000000df6c                HOST_LE_ConnectionCompleteEvent
 .text.HOST_LE_ConnectionUpdateCompleteEvent
                0x000000000000e02e       0x5c E:\PD_Fan\PD_Fan\Software\EXAM\BLE\LIB\libCH57xBLE.a(host_input.o)
                0x000000000000e02e                HOST_LE_ConnectionUpdateCompleteEvent
 .text.HOST_LE_ReadRemoteUsedFeaturesCompleteEvent
                0x000000000000e08a       0x62 E:\PD_Fan\PD_Fan\Software\EXAM\BLE\LIB\libCH57xBLE.a(host_input.o)
                0x000000000000e08a                HOST_LE_ReadRemoteUsedFeaturesCompleteEvent
 .text.HOST_LE_LongTermKeyRequestEvent
                0x000000000000e0ec       0x60 E:\PD_Fan\PD_Fan\Software\EXAM\BLE\LIB\libCH57xBLE.a(host_input.o)
                0x000000000000e0ec                HOST_LE_LongTermKeyRequestEvent
 .text.HOST_LE_RemoteConnectionParameterRequestEvent
                0x000000000000e14c       0x5c E:\PD_Fan\PD_Fan\Software\EXAM\BLE\LIB\libCH57xBLE.a(host_input.o)
                0x000000000000e14c                HOST_LE_RemoteConnectionParameterRequestEvent
 .text.HOST_RemoteConnectionParameterRequestEvent
                0x000000000000e1a8       0x42 E:\PD_Fan\PD_Fan\Software\EXAM\BLE\LIB\libCH57xBLE.a(host_input.o)
                0x000000000000e1a8                HOST_RemoteConnectionParameterRequestEvent
 .text.HOST_LE_DataLengthChangeEvent
                0x000000000000e1ea       0x5c E:\PD_Fan\PD_Fan\Software\EXAM\BLE\LIB\libCH57xBLE.a(host_input.o)
                0x000000000000e1ea                HOST_LE_DataLengthChangeEvent
 .text.HOST_LE_EnhancedConnectionCompleteEvent
                0x000000000000e246      0x118 E:\PD_Fan\PD_Fan\Software\EXAM\BLE\LIB\libCH57xBLE.a(host_input.o)
                0x000000000000e246                HOST_LE_EnhancedConnectionCompleteEvent
 .text.HOST_DisconnectionCompleteEvent
                0x000000000000e35e       0x44 E:\PD_Fan\PD_Fan\Software\EXAM\BLE\LIB\libCH57xBLE.a(host_input.o)
                0x000000000000e35e                HOST_DisconnectionCompleteEvent
 .text.HOST_EncryptionChangeEvent
                0x000000000000e3a2       0x4c E:\PD_Fan\PD_Fan\Software\EXAM\BLE\LIB\libCH57xBLE.a(host_input.o)
                0x000000000000e3a2                HOST_EncryptionChangeEvent
 .text.HOST_ReadRemoteVersionInfoEvent
                0x000000000000e3ee       0x56 E:\PD_Fan\PD_Fan\Software\EXAM\BLE\LIB\libCH57xBLE.a(host_input.o)
                0x000000000000e3ee                HOST_ReadRemoteVersionInfoEvent
 .text.HOST_CommandCompleteEvent
                0x000000000000e444       0x5e E:\PD_Fan\PD_Fan\Software\EXAM\BLE\LIB\libCH57xBLE.a(host_input.o)
                0x000000000000e444                HOST_CommandCompleteEvent
 .text.HOST_CommandStatusEvent
                0x000000000000e4a2       0x44 E:\PD_Fan\PD_Fan\Software\EXAM\BLE\LIB\libCH57xBLE.a(host_input.o)
                0x000000000000e4a2                HOST_CommandStatusEvent
 .text.HOST_DataBufferOverflowEvent
                0x000000000000e4e6       0x3a E:\PD_Fan\PD_Fan\Software\EXAM\BLE\LIB\libCH57xBLE.a(host_input.o)
                0x000000000000e4e6                HOST_DataBufferOverflowEvent
 .text.HOST_EncryptionKeyRefreshCompleteEvent
                0x000000000000e520       0x46 E:\PD_Fan\PD_Fan\Software\EXAM\BLE\LIB\libCH57xBLE.a(host_input.o)
                0x000000000000e520                HOST_EncryptionKeyRefreshCompleteEvent
 .text.HOST_NumberOfCompletedPacketsEvent
                0x000000000000e566       0x40 E:\PD_Fan\PD_Fan\Software\EXAM\BLE\LIB\libCH57xBLE.a(host_input.o)
                0x000000000000e566                HOST_NumberOfCompletedPacketsEvent
 .text.HOST_RecvDataPackets
                0x000000000000e5a6      0x1c6 E:\PD_Fan\PD_Fan\Software\EXAM\BLE\LIB\libCH57xBLE.a(host_input.o)
                0x000000000000e5a6                HOST_RecvDataPackets
 .text.HCI_DisconnectCmd
                0x000000000000e76c        0x4 E:\PD_Fan\PD_Fan\Software\EXAM\BLE\LIB\libCH57xBLE.a(host_output.o)
                0x000000000000e76c                HCI_DisconnectCmd
 .text.HCI_MB_DisconnectCmd
                0x000000000000e770        0x4 E:\PD_Fan\PD_Fan\Software\EXAM\BLE\LIB\libCH57xBLE.a(host_output.o)
                0x000000000000e770                HCI_MB_DisconnectCmd
 .text.HCI_HostNumCompletedPktCmd
                0x000000000000e774       0x10 E:\PD_Fan\PD_Fan\Software\EXAM\BLE\LIB\libCH57xBLE.a(host_output.o)
                0x000000000000e774                HCI_HostNumCompletedPktCmd
 .text.HCI_ReadBDADDRCmd
                0x000000000000e784        0x4 E:\PD_Fan\PD_Fan\Software\EXAM\BLE\LIB\libCH57xBLE.a(host_output.o)
                0x000000000000e784                HCI_ReadBDADDRCmd
 .text.HCI_LE_ReadBufSizeCmd
                0x000000000000e788        0x4 E:\PD_Fan\PD_Fan\Software\EXAM\BLE\LIB\libCH57xBLE.a(host_output.o)
                0x000000000000e788                HCI_LE_ReadBufSizeCmd
 .text.HCI_LE_SetRandomAddressCmd
                0x000000000000e78c        0x4 E:\PD_Fan\PD_Fan\Software\EXAM\BLE\LIB\libCH57xBLE.a(host_output.o)
                0x000000000000e78c                HCI_LE_SetRandomAddressCmd
 .text.HCI_LE_SetAdvParamCmd
                0x000000000000e790        0x4 E:\PD_Fan\PD_Fan\Software\EXAM\BLE\LIB\libCH57xBLE.a(host_output.o)
                0x000000000000e790                HCI_LE_SetAdvParamCmd
 .text.HCI_LE_SetAdvDataCmd
                0x000000000000e794        0x4 E:\PD_Fan\PD_Fan\Software\EXAM\BLE\LIB\libCH57xBLE.a(host_output.o)
                0x000000000000e794                HCI_LE_SetAdvDataCmd
 .text.HCI_LE_SetScanRspDataCmd
                0x000000000000e798        0x4 E:\PD_Fan\PD_Fan\Software\EXAM\BLE\LIB\libCH57xBLE.a(host_output.o)
                0x000000000000e798                HCI_LE_SetScanRspDataCmd
 .text.HCI_LE_SetAdvEnableCmd
                0x000000000000e79c        0x4 E:\PD_Fan\PD_Fan\Software\EXAM\BLE\LIB\libCH57xBLE.a(host_output.o)
                0x000000000000e79c                HCI_LE_SetAdvEnableCmd
 .text.HCI_LE_SetScanEnableCmd
                0x000000000000e7a0        0x4 E:\PD_Fan\PD_Fan\Software\EXAM\BLE\LIB\libCH57xBLE.a(host_output.o)
                0x000000000000e7a0                HCI_LE_SetScanEnableCmd
 .text.HCI_LE_CreateConnCancelCmd
                0x000000000000e7a4        0x4 E:\PD_Fan\PD_Fan\Software\EXAM\BLE\LIB\libCH57xBLE.a(host_output.o)
                0x000000000000e7a4                HCI_LE_CreateConnCancelCmd
 .text.HCI_LE_ClearWhiteListCmd
                0x000000000000e7a8        0x4 E:\PD_Fan\PD_Fan\Software\EXAM\BLE\LIB\libCH57xBLE.a(host_output.o)
                0x000000000000e7a8                HCI_LE_ClearWhiteListCmd
 .text.HCI_LE_AddWhiteListCmd
                0x000000000000e7ac        0x4 E:\PD_Fan\PD_Fan\Software\EXAM\BLE\LIB\libCH57xBLE.a(host_output.o)
                0x000000000000e7ac                HCI_LE_AddWhiteListCmd
 .text.HCI_LE_ConnUpdateCmd
                0x000000000000e7b0        0x4 E:\PD_Fan\PD_Fan\Software\EXAM\BLE\LIB\libCH57xBLE.a(host_output.o)
                0x000000000000e7b0                HCI_LE_ConnUpdateCmd
 .text.HCI_LE_RandCmd
                0x000000000000e7b4        0x4 E:\PD_Fan\PD_Fan\Software\EXAM\BLE\LIB\libCH57xBLE.a(host_output.o)
                0x000000000000e7b4                HCI_LE_RandCmd
 .text.HCI_LE_StartEncyptCmd
                0x000000000000e7b8       0x10 E:\PD_Fan\PD_Fan\Software\EXAM\BLE\LIB\libCH57xBLE.a(host_output.o)
                0x000000000000e7b8                HCI_LE_StartEncyptCmd
 .text.HCI_LE_LtkReqReplyCmd
                0x000000000000e7c8        0x4 E:\PD_Fan\PD_Fan\Software\EXAM\BLE\LIB\libCH57xBLE.a(host_output.o)
                0x000000000000e7c8                HCI_LE_LtkReqReplyCmd
 .text.HCI_LE_LtkReqNegReplyCmd
                0x000000000000e7cc        0x4 E:\PD_Fan\PD_Fan\Software\EXAM\BLE\LIB\libCH57xBLE.a(host_output.o)
                0x000000000000e7cc                HCI_LE_LtkReqNegReplyCmd
 .text.HCI_LE_RemoteConnParamReqReplyCmd
                0x000000000000e7d0        0x4 E:\PD_Fan\PD_Fan\Software\EXAM\BLE\LIB\libCH57xBLE.a(host_output.o)
                0x000000000000e7d0                HCI_LE_RemoteConnParamReqReplyCmd
 .text.HCI_LE_RemoteConnParamReqNegReplyCmd
                0x000000000000e7d4        0x4 E:\PD_Fan\PD_Fan\Software\EXAM\BLE\LIB\libCH57xBLE.a(host_output.o)
                0x000000000000e7d4                HCI_LE_RemoteConnParamReqNegReplyCmd
 .text.HCI_LE_AddDeviceToResolvingList
                0x000000000000e7d8        0x4 E:\PD_Fan\PD_Fan\Software\EXAM\BLE\LIB\libCH57xBLE.a(host_output.o)
                0x000000000000e7d8                HCI_LE_AddDeviceToResolvingList
 .text.HCI_LE_ClearResolvingList
                0x000000000000e7dc        0x4 E:\PD_Fan\PD_Fan\Software\EXAM\BLE\LIB\libCH57xBLE.a(host_output.o)
                0x000000000000e7dc                HCI_LE_ClearResolvingList
 .text.HCI_LE_SetAddressResolvableEnableCmd
                0x000000000000e7e0        0x4 E:\PD_Fan\PD_Fan\Software\EXAM\BLE\LIB\libCH57xBLE.a(host_output.o)
                0x000000000000e7e0                HCI_LE_SetAddressResolvableEnableCmd
 .text.HCI_LE_SetResolvableAddressTimeoutCmd
                0x000000000000e7e4        0x4 E:\PD_Fan\PD_Fan\Software\EXAM\BLE\LIB\libCH57xBLE.a(host_output.o)
                0x000000000000e7e4                HCI_LE_SetResolvableAddressTimeoutCmd
 .text.HCI_SendDataPkt
                0x000000000000e7e8        0x4 E:\PD_Fan\PD_Fan\Software\EXAM\BLE\LIB\libCH57xBLE.a(host_output.o)
                0x000000000000e7e8                HCI_SendDataPkt
 .text.HCI_ValidConnTimeParams
                0x000000000000e7ec       0x4c E:\PD_Fan\PD_Fan\Software\EXAM\BLE\LIB\libCH57xBLE.a(host_output.o)
                0x000000000000e7ec                HCI_ValidConnTimeParams
 .text.ll_connect_auth_timeout
                0x000000000000e838       0x16 E:\PD_Fan\PD_Fan\Software\EXAM\BLE\LIB\libCH57xBLE.a(ll_connect.o)
                0x000000000000e838                ll_connect_auth_timeout
 .text.ll_connect_set_auth_timeout
                0x000000000000e84e       0x56 E:\PD_Fan\PD_Fan\Software\EXAM\BLE\LIB\libCH57xBLE.a(ll_connect.o)
                0x000000000000e84e                ll_connect_set_auth_timeout
 .text.ll_connect_set_procedure_timeout
                0x000000000000e8a4       0x3c E:\PD_Fan\PD_Fan\Software\EXAM\BLE\LIB\libCH57xBLE.a(ll_connect.o)
                0x000000000000e8a4                ll_connect_set_procedure_timeout
 .text.ll_connect_set_connect_timeout
                0x000000000000e8e0       0x3c E:\PD_Fan\PD_Fan\Software\EXAM\BLE\LIB\libCH57xBLE.a(ll_connect.o)
                0x000000000000e8e0                ll_connect_set_connect_timeout
 .text.ll_connect_init_dataLen
                0x000000000000e91c       0x56 E:\PD_Fan\PD_Fan\Software\EXAM\BLE\LIB\libCH57xBLE.a(ll_connect.o)
                0x000000000000e91c                ll_connect_init_dataLen
 .text.ll_connect_init_pingOffset
                0x000000000000e972       0x2e E:\PD_Fan\PD_Fan\Software\EXAM\BLE\LIB\libCH57xBLE.a(ll_connect.o)
                0x000000000000e972                ll_connect_init_pingOffset
 .text.ll_connect_parse_datapdu_head
                0x000000000000e9a0       0x34 E:\PD_Fan\PD_Fan\Software\EXAM\BLE\LIB\libCH57xBLE.a(ll_connect.o)
                0x000000000000e9a0                ll_connect_parse_datapdu_head
 .text.ll_connect_send_data
                0x000000000000e9d4      0x106 E:\PD_Fan\PD_Fan\Software\EXAM\BLE\LIB\libCH57xBLE.a(ll_connect.o)
                0x000000000000e9d4                ll_connect_send_data
 .text.ll_connect_flowcontrol_init
                0x000000000000eada        0xc E:\PD_Fan\PD_Fan\Software\EXAM\BLE\LIB\libCH57xBLE.a(ll_connect.o)
                0x000000000000eada                ll_connect_flowcontrol_init
 .text.LL_ConnectFlowcontrolTx
                0x000000000000eae6       0x28 E:\PD_Fan\PD_Fan\Software\EXAM\BLE\LIB\libCH57xBLE.a(ll_connect.o)
                0x000000000000eae6                LL_ConnectFlowcontrolTx
 .text.LL_ConnectFlowcontrolRx
                0x000000000000eb0e       0x28 E:\PD_Fan\PD_Fan\Software\EXAM\BLE\LIB\libCH57xBLE.a(ll_connect.o)
                0x000000000000eb0e                LL_ConnectFlowcontrolRx
 .text.LL_ConnectTxPktnumIncrease
                0x000000000000eb36       0x50 E:\PD_Fan\PD_Fan\Software\EXAM\BLE\LIB\libCH57xBLE.a(ll_connect.o)
                0x000000000000eb36                LL_ConnectTxPktnumIncrease
 .text.LL_ConnectRxPktnumIncrease
                0x000000000000eb86       0x3e E:\PD_Fan\PD_Fan\Software\EXAM\BLE\LIB\libCH57xBLE.a(ll_connect.o)
                0x000000000000eb86                LL_ConnectRxPktnumIncrease
 .text.ll_connect_get_slave_number
                0x000000000000ebc4       0x20 E:\PD_Fan\PD_Fan\Software\EXAM\BLE\LIB\libCH57xBLE.a(ll_connect.o)
                0x000000000000ebc4                ll_connect_get_slave_number
 .text.ll_connect_update_get_offset
                0x000000000000ebe4       0xa2 E:\PD_Fan\PD_Fan\Software\EXAM\BLE\LIB\libCH57xBLE.a(ll_connect.o)
                0x000000000000ebe4                ll_connect_update_get_offset
 .text.ll_connect_get_update_point
                0x000000000000ec86       0x80 E:\PD_Fan\PD_Fan\Software\EXAM\BLE\LIB\libCH57xBLE.a(ll_connect.o)
                0x000000000000ec86                ll_connect_get_update_point
 .text.ll_master_check_connect_point
                0x000000000000ed06       0xf0 E:\PD_Fan\PD_Fan\Software\EXAM\BLE\LIB\libCH57xBLE.a(ll_connect.o)
                0x000000000000ed06                ll_master_check_connect_point
 .text.ll_slave_check_connect_point
                0x000000000000edf6      0x1c4 E:\PD_Fan\PD_Fan\Software\EXAM\BLE\LIB\libCH57xBLE.a(ll_connect.o)
                0x000000000000edf6                ll_slave_check_connect_point
 .text.ll_connect_change_connect_point
                0x000000000000efba      0x21c E:\PD_Fan\PD_Fan\Software\EXAM\BLE\LIB\libCH57xBLE.a(ll_connect.o)
                0x000000000000efba                ll_connect_change_connect_point
 .text.ll_connect_recv_data
                0x000000000000f1d6       0xa0 E:\PD_Fan\PD_Fan\Software\EXAM\BLE\LIB\libCH57xBLE.a(ll_connect.o)
                0x000000000000f1d6                ll_connect_recv_data
 .text.LL_GetNextConnectEventTime
                0x000000000000f276      0x12c E:\PD_Fan\PD_Fan\Software\EXAM\BLE\LIB\libCH57xBLE.a(ll_connect.o)
                0x000000000000f276                LL_GetNextConnectEventTime
 .text.LL_ConnectFreeTmosPrioritID
                0x000000000000f3a2       0xde E:\PD_Fan\PD_Fan\Software\EXAM\BLE\LIB\libCH57xBLE.a(ll_connect.o)
                0x000000000000f3a2                LL_ConnectFreeTmosPrioritID
 .text.LL_ConnectToStandby
                0x000000000000f480       0x86 E:\PD_Fan\PD_Fan\Software\EXAM\BLE\LIB\libCH57xBLE.a(ll_connect.o)
                0x000000000000f480                LL_ConnectToStandby
 .text.ll_connect_action_in_connintervaltimeout
                0x000000000000f506      0x348 E:\PD_Fan\PD_Fan\Software\EXAM\BLE\LIB\libCH57xBLE.a(ll_connect.o)
                0x000000000000f506                ll_connect_action_in_connintervaltimeout
 .text.ll_connect_procedure_timeout
                0x000000000000f84e       0x2a E:\PD_Fan\PD_Fan\Software\EXAM\BLE\LIB\libCH57xBLE.a(ll_connect.o)
                0x000000000000f84e                ll_connect_procedure_timeout
 .text.ll_connect_supervision_timeout
                0x000000000000f878       0x34 E:\PD_Fan\PD_Fan\Software\EXAM\BLE\LIB\libCH57xBLE.a(ll_connect.o)
                0x000000000000f878                ll_connect_supervision_timeout
 .text.ll_connect_process_event
                0x000000000000f8ac      0x488 E:\PD_Fan\PD_Fan\Software\EXAM\BLE\LIB\libCH57xBLE.a(ll_connect.o)
                0x000000000000f8ac                ll_connect_process_event
 .text.LL_ConnectShut
                0x000000000000fd34       0xe2 E:\PD_Fan\PD_Fan\Software\EXAM\BLE\LIB\libCH57xBLE.a(ll_connect.o)
                0x000000000000fd34                LL_ConnectShut
 .text.LL_CoreGetCore
                0x000000000000fe16       0x1c E:\PD_Fan\PD_Fan\Software\EXAM\BLE\LIB\libCH57xBLE.a(ll_core.o)
                0x000000000000fe16                LL_CoreGetCore
 .text.LL_CoreGetDataList
                0x000000000000fe32       0x36 E:\PD_Fan\PD_Fan\Software\EXAM\BLE\LIB\libCH57xBLE.a(ll_core.o)
                0x000000000000fe32                LL_CoreGetDataList
 .text.LL_CoreDataListInit
                0x000000000000fe68       0xa0 E:\PD_Fan\PD_Fan\Software\EXAM\BLE\LIB\libCH57xBLE.a(ll_core.o)
                0x000000000000fe68                LL_CoreDataListInit
 .text.LL_CoreOpen
                0x000000000000ff08       0xc6 E:\PD_Fan\PD_Fan\Software\EXAM\BLE\LIB\libCH57xBLE.a(ll_core.o)
                0x000000000000ff08                LL_CoreOpen
 .text.LL_CoreDataListFree
                0x000000000000ffce       0x30 E:\PD_Fan\PD_Fan\Software\EXAM\BLE\LIB\libCH57xBLE.a(ll_core.o)
                0x000000000000ffce                LL_CoreDataListFree
 .text.LL_CoreClose
                0x000000000000fffe       0x8a E:\PD_Fan\PD_Fan\Software\EXAM\BLE\LIB\libCH57xBLE.a(ll_core.o)
                0x000000000000fffe                LL_CoreClose
 .text.LL_CoreInit
                0x0000000000010088       0x10 E:\PD_Fan\PD_Fan\Software\EXAM\BLE\LIB\libCH57xBLE.a(ll_core.o)
                0x0000000000010088                LL_CoreInit
 .text.LL_HopGetChannel
                0x0000000000010098       0xda E:\PD_Fan\PD_Fan\Software\EXAM\BLE\LIB\libCH57xBLE.a(ll_hop.o)
                0x0000000000010098                LL_HopGetChannel
 .text.LL_HopInit
                0x0000000000010172        0x6 E:\PD_Fan\PD_Fan\Software\EXAM\BLE\LIB\libCH57xBLE.a(ll_hop.o)
                0x0000000000010172                LL_HopInit
 .text.ll_master_process_after_rx
                0x0000000000010178      0x33a E:\PD_Fan\PD_Fan\Software\EXAM\BLE\LIB\libCH57xBLE.a(ll_master.o)
 .text.ll_master_action_tx_ready
                0x00000000000104b2      0x542 E:\PD_Fan\PD_Fan\Software\EXAM\BLE\LIB\libCH57xBLE.a(ll_master.o)
                0x00000000000104b2                ll_master_action_tx_ready
 .text.ll_master_process
                0x00000000000109f4      0xa20 E:\PD_Fan\PD_Fan\Software\EXAM\BLE\LIB\libCH57xBLE.a(ll_master.o)
                0x00000000000109f4                ll_master_process
 .text.LL_ConnectionUpdateReq
                0x0000000000011414       0xbc E:\PD_Fan\PD_Fan\Software\EXAM\BLE\LIB\libCH57xBLE.a(ll_pdu.o)
                0x0000000000011414                LL_ConnectionUpdateReq
 .text.LL_ChannelMapReq
                0x00000000000114d0       0x68 E:\PD_Fan\PD_Fan\Software\EXAM\BLE\LIB\libCH57xBLE.a(ll_pdu.o)
                0x00000000000114d0                LL_ChannelMapReq
 .text.LL_TerminateInd
                0x0000000000011538       0x34 E:\PD_Fan\PD_Fan\Software\EXAM\BLE\LIB\libCH57xBLE.a(ll_pdu.o)
                0x0000000000011538                LL_TerminateInd
 .text.LL_EncReq
                0x000000000001156c       0x84 E:\PD_Fan\PD_Fan\Software\EXAM\BLE\LIB\libCH57xBLE.a(ll_pdu.o)
                0x000000000001156c                LL_EncReq
 .text.LL_EncRsp
                0x00000000000115f0       0x58 E:\PD_Fan\PD_Fan\Software\EXAM\BLE\LIB\libCH57xBLE.a(ll_pdu.o)
                0x00000000000115f0                LL_EncRsp
 .text.LL_StartEncReq
                0x0000000000011648       0x22 E:\PD_Fan\PD_Fan\Software\EXAM\BLE\LIB\libCH57xBLE.a(ll_pdu.o)
                0x0000000000011648                LL_StartEncReq
 .text.LL_StartEncRsp
                0x000000000001166a       0x22 E:\PD_Fan\PD_Fan\Software\EXAM\BLE\LIB\libCH57xBLE.a(ll_pdu.o)
                0x000000000001166a                LL_StartEncRsp
 .text.LL_UnknowRsp
                0x000000000001168c       0x26 E:\PD_Fan\PD_Fan\Software\EXAM\BLE\LIB\libCH57xBLE.a(ll_pdu.o)
                0x000000000001168c                LL_UnknowRsp
 .text.LL_FeatureReq
                0x00000000000116b2       0x50 E:\PD_Fan\PD_Fan\Software\EXAM\BLE\LIB\libCH57xBLE.a(ll_pdu.o)
                0x00000000000116b2                LL_FeatureReq
 .text.LL_FeatureRsp
                0x0000000000011702       0x42 E:\PD_Fan\PD_Fan\Software\EXAM\BLE\LIB\libCH57xBLE.a(ll_pdu.o)
                0x0000000000011702                LL_FeatureRsp
 .text.LL_PauseEncReq
                0x0000000000011744       0x2e E:\PD_Fan\PD_Fan\Software\EXAM\BLE\LIB\libCH57xBLE.a(ll_pdu.o)
                0x0000000000011744                LL_PauseEncReq
 .text.LL_PauseEncRsp
                0x0000000000011772       0x22 E:\PD_Fan\PD_Fan\Software\EXAM\BLE\LIB\libCH57xBLE.a(ll_pdu.o)
                0x0000000000011772                LL_PauseEncRsp
 .text.LL_VersionInd
                0x0000000000011794       0x8c E:\PD_Fan\PD_Fan\Software\EXAM\BLE\LIB\libCH57xBLE.a(ll_pdu.o)
                0x0000000000011794                LL_VersionInd
 .text.LL_RejectInd
                0x0000000000011820       0x26 E:\PD_Fan\PD_Fan\Software\EXAM\BLE\LIB\libCH57xBLE.a(ll_pdu.o)
                0x0000000000011820                LL_RejectInd
 .text.LL_SlaveFeatureReq
                0x0000000000011846       0x50 E:\PD_Fan\PD_Fan\Software\EXAM\BLE\LIB\libCH57xBLE.a(ll_pdu.o)
                0x0000000000011846                LL_SlaveFeatureReq
 .text.LL_ConnectionParamReq
                0x0000000000011896       0xac E:\PD_Fan\PD_Fan\Software\EXAM\BLE\LIB\libCH57xBLE.a(ll_pdu.o)
                0x0000000000011896                LL_ConnectionParamReq
 .text.LL_ConnectionParamRsp
                0x0000000000011942       0xa0 E:\PD_Fan\PD_Fan\Software\EXAM\BLE\LIB\libCH57xBLE.a(ll_pdu.o)
                0x0000000000011942                LL_ConnectionParamRsp
 .text.LL_RejectIndExt
                0x00000000000119e2       0x26 E:\PD_Fan\PD_Fan\Software\EXAM\BLE\LIB\libCH57xBLE.a(ll_pdu.o)
                0x00000000000119e2                LL_RejectIndExt
 .text.LL_PingReq
                0x0000000000011a08       0x2e E:\PD_Fan\PD_Fan\Software\EXAM\BLE\LIB\libCH57xBLE.a(ll_pdu.o)
                0x0000000000011a08                LL_PingReq
 .text.LL_PingRsp
                0x0000000000011a36       0x1a E:\PD_Fan\PD_Fan\Software\EXAM\BLE\LIB\libCH57xBLE.a(ll_pdu.o)
                0x0000000000011a36                LL_PingRsp
 .text.LL_LengthReq
                0x0000000000011a50       0x66 E:\PD_Fan\PD_Fan\Software\EXAM\BLE\LIB\libCH57xBLE.a(ll_pdu.o)
                0x0000000000011a50                LL_LengthReq
 .text.LL_LengthRsp
                0x0000000000011ab6       0x52 E:\PD_Fan\PD_Fan\Software\EXAM\BLE\LIB\libCH57xBLE.a(ll_pdu.o)
                0x0000000000011ab6                LL_LengthRsp
 .text.LL_SendAck
                0x0000000000011b08       0x1c E:\PD_Fan\PD_Fan\Software\EXAM\BLE\LIB\libCH57xBLE.a(ll_pdu.o)
                0x0000000000011b08                LL_SendAck
 .text.LL_RxConnParamReq
                0x0000000000011b24       0xf8 E:\PD_Fan\PD_Fan\Software\EXAM\BLE\LIB\libCH57xBLE.a(ll_pdu.o)
                0x0000000000011b24                LL_RxConnParamReq
 .text.LL_RxConnParamRsp
                0x0000000000011c1c       0xd2 E:\PD_Fan\PD_Fan\Software\EXAM\BLE\LIB\libCH57xBLE.a(ll_pdu.o)
                0x0000000000011c1c                LL_RxConnParamRsp
 .text.LL_RxLenUpdate
                0x0000000000011cee       0xb6 E:\PD_Fan\PD_Fan\Software\EXAM\BLE\LIB\libCH57xBLE.a(ll_pdu.o)
                0x0000000000011cee                LL_RxLenUpdate
 .text.LL_RxVersionExchange
                0x0000000000011da4       0x2e E:\PD_Fan\PD_Fan\Software\EXAM\BLE\LIB\libCH57xBLE.a(ll_pdu.o)
                0x0000000000011da4                LL_RxVersionExchange
 .text.LL_ReportGenerateEvent
                0x0000000000011dd2       0x42 E:\PD_Fan\PD_Fan\Software\EXAM\BLE\LIB\libCH57xBLE.a(ll_report.o)
                0x0000000000011dd2                LL_ReportGenerateEvent
 .text.LL_ProcessTMOSReportMsg
                0x0000000000011e14      0x572 E:\PD_Fan\PD_Fan\Software\EXAM\BLE\LIB\libCH57xBLE.a(ll_report.o)
                0x0000000000011e14                LL_ProcessTMOSReportMsg
 .text.LL_ScanToStandby
                0x0000000000012386       0x9c E:\PD_Fan\PD_Fan\Software\EXAM\BLE\LIB\libCH57xBLE.a(ll_scan.o)
                0x0000000000012386                LL_ScanToStandby
 .text.ll_slave_process_after_tx
                0x0000000000012422      0x39c E:\PD_Fan\PD_Fan\Software\EXAM\BLE\LIB\libCH57xBLE.a(ll_slave.o)
 .text.llSlaveCreateCore
                0x00000000000127be       0xf6 E:\PD_Fan\PD_Fan\Software\EXAM\BLE\LIB\libCH57xBLE.a(ll_slave.o)
                0x00000000000127be                llSlaveCreateCore
 .text.llSlaveSetFirstTimer
                0x00000000000128b4      0x1d2 E:\PD_Fan\PD_Fan\Software\EXAM\BLE\LIB\libCH57xBLE.a(ll_slave.o)
 .text.ll_hw_timer_slave_recv_timeout
                0x0000000000012a86       0x22 E:\PD_Fan\PD_Fan\Software\EXAM\BLE\LIB\libCH57xBLE.a(ll_slave.o)
                0x0000000000012a86                ll_hw_timer_slave_recv_timeout
 .text.ll_slave_process
                0x0000000000012aa8     0x1116 E:\PD_Fan\PD_Fan\Software\EXAM\BLE\LIB\libCH57xBLE.a(ll_slave.o)
                0x0000000000012aa8                ll_slave_process
 .text.LL_SlaveEnalbe
                0x0000000000013bbe       0x2a E:\PD_Fan\PD_Fan\Software\EXAM\BLE\LIB\libCH57xBLE.a(ll_slave.o)
                0x0000000000013bbe                LL_SlaveEnalbe
 .text.LL_WhitelistLookup
                0x0000000000013be8       0x4e E:\PD_Fan\PD_Fan\Software\EXAM\BLE\LIB\libCH57xBLE.a(ll_whitelist.o)
                0x0000000000013be8                LL_WhitelistLookup
 .text.LL_WhitelistAdd
                0x0000000000013c36       0xb4 E:\PD_Fan\PD_Fan\Software\EXAM\BLE\LIB\libCH57xBLE.a(ll_whitelist.o)
                0x0000000000013c36                LL_WhitelistAdd
 .text.LL_WhitelistClearAll
                0x0000000000013cea       0x4a E:\PD_Fan\PD_Fan\Software\EXAM\BLE\LIB\libCH57xBLE.a(ll_whitelist.o)
                0x0000000000013cea                LL_WhitelistClearAll
 .text.LL_WhitelistInit
                0x0000000000013d34       0x12 E:\PD_Fan\PD_Fan\Software\EXAM\BLE\LIB\libCH57xBLE.a(ll_whitelist.o)
                0x0000000000013d34                LL_WhitelistInit
 .text.AES_DevAESEnc
                0x0000000000013d46      0x1a2 E:\PD_Fan\PD_Fan\Software\EXAM\BLE\LIB\libCH57xBLE.a(aes.o)
                0x0000000000013d46                AES_DevAESEnc
 .text.LL_Encrypt
                0x0000000000013ee8       0x10 E:\PD_Fan\PD_Fan\Software\EXAM\BLE\LIB\libCH57xBLE.a(aes.o)
                0x0000000000013ee8                LL_Encrypt
 .text.AES_DevPktEnc
                0x0000000000013ef8       0x62 E:\PD_Fan\PD_Fan\Software\EXAM\BLE\LIB\libCH57xBLE.a(aes.o)
                0x0000000000013ef8                AES_DevPktEnc
 .text.AES_DevPktDec
                0x0000000000013f5a       0x6e E:\PD_Fan\PD_Fan\Software\EXAM\BLE\LIB\libCH57xBLE.a(aes.o)
                0x0000000000013f5a                AES_DevPktDec
 .text.BB_DevInit
                0x0000000000013fc8       0xba E:\PD_Fan\PD_Fan\Software\EXAM\BLE\LIB\libCH57xBLE.a(bb.o)
                0x0000000000013fc8                BB_DevInit
 .text.DMA_DevInit
                0x0000000000014082       0x48 E:\PD_Fan\PD_Fan\Software\EXAM\BLE\LIB\libCH57xBLE.a(dma.o)
                0x0000000000014082                DMA_DevInit
 .text.ll_tx_wait_pkt_recv
                0x00000000000140ca       0x24 E:\PD_Fan\PD_Fan\Software\EXAM\BLE\LIB\libCH57xBLE.a(ip.o)
                0x00000000000140ca                ll_tx_wait_pkt_recv
 .text.ll_tx_set_wait_finish
                0x00000000000140ee       0x2e E:\PD_Fan\PD_Fan\Software\EXAM\BLE\LIB\libCH57xBLE.a(ip.o)
                0x00000000000140ee                ll_tx_set_wait_finish
 .text.ll_rx_wait_pkt_recv
                0x000000000001411c       0x24 E:\PD_Fan\PD_Fan\Software\EXAM\BLE\LIB\libCH57xBLE.a(ip.o)
                0x000000000001411c                ll_rx_wait_pkt_recv
 .text.ll_multi_states_check
                0x0000000000014140       0x34 E:\PD_Fan\PD_Fan\Software\EXAM\BLE\LIB\libCH57xBLE.a(ip.o)
                0x0000000000014140                ll_multi_states_check
 .text.ble_ll_hw_api_shut
                0x0000000000014174       0x56 E:\PD_Fan\PD_Fan\Software\EXAM\BLE\LIB\libCH57xBLE.a(ip.o)
                0x0000000000014174                ble_ll_hw_api_shut
 .text.ble_ll_hw_api_rx
                0x00000000000141ca       0xe0 E:\PD_Fan\PD_Fan\Software\EXAM\BLE\LIB\libCH57xBLE.a(ip.o)
                0x00000000000141ca                ble_ll_hw_api_rx
 .text.ll_multi_states_process
                0x00000000000142aa      0x114 E:\PD_Fan\PD_Fan\Software\EXAM\BLE\LIB\libCH57xBLE.a(ip.o)
                0x00000000000142aa                ll_multi_states_process
 .text.ll_hw_api_tx_direct_test
                0x00000000000143be      0x112 E:\PD_Fan\PD_Fan\Software\EXAM\BLE\LIB\libCH57xBLE.a(ip.o)
                0x00000000000143be                ll_hw_api_tx_direct_test
 .text.BLE_RegInit
                0x00000000000144d0       0x5e E:\PD_Fan\PD_Fan\Software\EXAM\BLE\LIB\libCH57xBLE.a(ip.o)
                0x00000000000144d0                BLE_RegInit
 .text.BLE_ADCTune
                0x000000000001452e       0x4c E:\PD_Fan\PD_Fan\Software\EXAM\BLE\LIB\libCH57xBLE.a(ip.o)
                0x000000000001452e                BLE_ADCTune
 .text.BLE_IPCoreInit
                0x000000000001457a       0x94 E:\PD_Fan\PD_Fan\Software\EXAM\BLE\LIB\libCH57xBLE.a(ip.o)
                0x000000000001457a                BLE_IPCoreInit
 .text.LLE_DevInit
                0x000000000001460e       0x54 E:\PD_Fan\PD_Fan\Software\EXAM\BLE\LIB\libCH57xBLE.a(lle.o)
                0x000000000001460e                LLE_DevInit
 .text.RF_DevSetChannel
                0x0000000000014662      0x13c E:\PD_Fan\PD_Fan\Software\EXAM\BLE\LIB\libCH57xBLE.a(rf_fh.o)
                0x0000000000014662                RF_DevSetChannel
 .text.RF_FrequencyHoppingChange
                0x000000000001479e       0x98 E:\PD_Fan\PD_Fan\Software\EXAM\BLE\LIB\libCH57xBLE.a(rf_fh.o)
                0x000000000001479e                RF_FrequencyHoppingChange
 .text.RF_Rx    0x0000000000014836      0x1dc E:\PD_Fan\PD_Fan\Software\EXAM\BLE\LIB\libCH57xBLE.a(rf_fh.o)
                0x0000000000014836                RF_Rx
 .text.RFEND_Reset
                0x0000000000014a12       0xa8 E:\PD_Fan\PD_Fan\Software\EXAM\BLE\LIB\libCH57xBLE.a(rfend.o)
                0x0000000000014a12                RFEND_Reset
 .text.RFEND_DevInit
                0x0000000000014aba      0x172 E:\PD_Fan\PD_Fan\Software\EXAM\BLE\LIB\libCH57xBLE.a(rfend.o)
                0x0000000000014aba                RFEND_DevInit
 .text.RFEND_RXFilter
                0x0000000000014c2c       0x7c E:\PD_Fan\PD_Fan\Software\EXAM\BLE\LIB\libCH57xBLE.a(rfend.o)
                0x0000000000014c2c                RFEND_RXFilter
 .text.RFEND_RXAdc
                0x0000000000014ca8      0x14c E:\PD_Fan\PD_Fan\Software\EXAM\BLE\LIB\libCH57xBLE.a(rfend.o)
                0x0000000000014ca8                RFEND_RXAdc
 .text.RFEND_TXCtune
                0x0000000000014df4      0xcfc E:\PD_Fan\PD_Fan\Software\EXAM\BLE\LIB\libCH57xBLE.a(rfend.o)
                0x0000000000014df4                RFEND_TXCtune
 .text.RFEND_TXFtune
                0x0000000000015af0       0x10 E:\PD_Fan\PD_Fan\Software\EXAM\BLE\LIB\libCH57xBLE.a(rfend.o)
                0x0000000000015af0                RFEND_TXFtune
 .text.API_DisconnectCmd
                0x0000000000015b00       0x16 E:\PD_Fan\PD_Fan\Software\EXAM\BLE\LIB\libCH57xBLE.a(api_c.o)
                0x0000000000015b00                API_DisconnectCmd
 .text.API_MD_DisconnectCmd
                0x0000000000015b16        0x2 E:\PD_Fan\PD_Fan\Software\EXAM\BLE\LIB\libCH57xBLE.a(api_c.o)
                0x0000000000015b16                API_MD_DisconnectCmd
 .text.API_HostNumCompletedPktCmd
                0x0000000000015b18       0x34 E:\PD_Fan\PD_Fan\Software\EXAM\BLE\LIB\libCH57xBLE.a(api_c.o)
                0x0000000000015b18                API_HostNumCompletedPktCmd
 .text.API_ReadBDADDRCmd
                0x0000000000015b4c       0x24 E:\PD_Fan\PD_Fan\Software\EXAM\BLE\LIB\libCH57xBLE.a(api_c.o)
                0x0000000000015b4c                API_ReadBDADDRCmd
 .text.API_LE_ReadBufSizeCmd
                0x0000000000015b70       0x24 E:\PD_Fan\PD_Fan\Software\EXAM\BLE\LIB\libCH57xBLE.a(api_c.o)
                0x0000000000015b70                API_LE_ReadBufSizeCmd
 .text.API_LE_SetRandomAddressCmd
                0x0000000000015b94       0x22 E:\PD_Fan\PD_Fan\Software\EXAM\BLE\LIB\libCH57xBLE.a(api_c.o)
                0x0000000000015b94                API_LE_SetRandomAddressCmd
 .text.API_LE_SetAdvParamCmd
                0x0000000000015bb6       0x22 E:\PD_Fan\PD_Fan\Software\EXAM\BLE\LIB\libCH57xBLE.a(api_c.o)
                0x0000000000015bb6                API_LE_SetAdvParamCmd
 .text.API_LE_SetAdvDataCmd
                0x0000000000015bd8       0x22 E:\PD_Fan\PD_Fan\Software\EXAM\BLE\LIB\libCH57xBLE.a(api_c.o)
                0x0000000000015bd8                API_LE_SetAdvDataCmd
 .text.API_LE_SetScanRspDataCmd
                0x0000000000015bfa       0x22 E:\PD_Fan\PD_Fan\Software\EXAM\BLE\LIB\libCH57xBLE.a(api_c.o)
                0x0000000000015bfa                API_LE_SetScanRspDataCmd
 .text.API_LE_SetAdvEnableCmd
                0x0000000000015c1c       0x22 E:\PD_Fan\PD_Fan\Software\EXAM\BLE\LIB\libCH57xBLE.a(api_c.o)
                0x0000000000015c1c                API_LE_SetAdvEnableCmd
 .text.API_LE_SetScanEnableCmd
                0x0000000000015c3e       0x24 E:\PD_Fan\PD_Fan\Software\EXAM\BLE\LIB\libCH57xBLE.a(api_c.o)
                0x0000000000015c3e                API_LE_SetScanEnableCmd
 .text.API_LE_CreateConnCancelCmd
                0x0000000000015c62       0x22 E:\PD_Fan\PD_Fan\Software\EXAM\BLE\LIB\libCH57xBLE.a(api_c.o)
                0x0000000000015c62                API_LE_CreateConnCancelCmd
 .text.API_LE_ClearWhiteListCmd
                0x0000000000015c84       0x24 E:\PD_Fan\PD_Fan\Software\EXAM\BLE\LIB\libCH57xBLE.a(api_c.o)
                0x0000000000015c84                API_LE_ClearWhiteListCmd
 .text.API_LE_AddWhiteListCmd
                0x0000000000015ca8       0x24 E:\PD_Fan\PD_Fan\Software\EXAM\BLE\LIB\libCH57xBLE.a(api_c.o)
                0x0000000000015ca8                API_LE_AddWhiteListCmd
 .text.API_LE_ConnUpdateCmd
                0x0000000000015ccc       0x1e E:\PD_Fan\PD_Fan\Software\EXAM\BLE\LIB\libCH57xBLE.a(api_c.o)
                0x0000000000015ccc                API_LE_ConnUpdateCmd
 .text.API_LE_RandCmd
                0x0000000000015cea       0x24 E:\PD_Fan\PD_Fan\Software\EXAM\BLE\LIB\libCH57xBLE.a(api_c.o)
                0x0000000000015cea                API_LE_RandCmd
 .text.API_LE_StartEncryptCmd
                0x0000000000015d0e       0x18 E:\PD_Fan\PD_Fan\Software\EXAM\BLE\LIB\libCH57xBLE.a(api_c.o)
                0x0000000000015d0e                API_LE_StartEncryptCmd
 .text.API_LE_LtkReqReplyCmd
                0x0000000000015d26       0x30 E:\PD_Fan\PD_Fan\Software\EXAM\BLE\LIB\libCH57xBLE.a(api_c.o)
                0x0000000000015d26                API_LE_LtkReqReplyCmd
 .text.API_LE_LtkReqNegReplyCmd
                0x0000000000015d56       0x30 E:\PD_Fan\PD_Fan\Software\EXAM\BLE\LIB\libCH57xBLE.a(api_c.o)
                0x0000000000015d56                API_LE_LtkReqNegReplyCmd
 .text.API_LE_RemoteConnParamReqReplyCmd
                0x0000000000015d86       0x30 E:\PD_Fan\PD_Fan\Software\EXAM\BLE\LIB\libCH57xBLE.a(api_c.o)
                0x0000000000015d86                API_LE_RemoteConnParamReqReplyCmd
 .text.API_LE_RemoteConnParamReqNegReplyCmd
                0x0000000000015db6       0x32 E:\PD_Fan\PD_Fan\Software\EXAM\BLE\LIB\libCH57xBLE.a(api_c.o)
                0x0000000000015db6                API_LE_RemoteConnParamReqNegReplyCmd
 .text.API_LE_AddDeviceToResolvingList
                0x0000000000015de8       0x26 E:\PD_Fan\PD_Fan\Software\EXAM\BLE\LIB\libCH57xBLE.a(api_c.o)
                0x0000000000015de8                API_LE_AddDeviceToResolvingList
 .text.API_LE_ClearResolvingList
                0x0000000000015e0e       0x26 E:\PD_Fan\PD_Fan\Software\EXAM\BLE\LIB\libCH57xBLE.a(api_c.o)
                0x0000000000015e0e                API_LE_ClearResolvingList
 .text.API_LE_SetAddressResolvableEnableCmd
                0x0000000000015e34       0x26 E:\PD_Fan\PD_Fan\Software\EXAM\BLE\LIB\libCH57xBLE.a(api_c.o)
                0x0000000000015e34                API_LE_SetAddressResolvableEnableCmd
 .text.API_LE_SetResolvableAddressTimeoutCmd
                0x0000000000015e5a       0x26 E:\PD_Fan\PD_Fan\Software\EXAM\BLE\LIB\libCH57xBLE.a(api_c.o)
                0x0000000000015e5a                API_LE_SetResolvableAddressTimeoutCmd
 .text.API_SendDataPkt
                0x0000000000015e80        0x4 E:\PD_Fan\PD_Fan\Software\EXAM\BLE\LIB\libCH57xBLE.a(api_c.o)
                0x0000000000015e80                API_SendDataPkt
 .text.CreatePRBS9
                0x0000000000015e84       0x52 E:\PD_Fan\PD_Fan\Software\EXAM\BLE\LIB\libCH57xBLE.a(ctl_input.o)
                0x0000000000015e84                CreatePRBS9
 .text.CreatePRBS15
                0x0000000000015ed6       0x5a E:\PD_Fan\PD_Fan\Software\EXAM\BLE\LIB\libCH57xBLE.a(ctl_input.o)
                0x0000000000015ed6                CreatePRBS15
 .text.LL_TransmitterTest
                0x0000000000015f30      0x13a E:\PD_Fan\PD_Fan\Software\EXAM\BLE\LIB\libCH57xBLE.a(ctl_input.o)
                0x0000000000015f30                LL_TransmitterTest
 .text.LL_Disconnect
                0x000000000001606a       0x3e E:\PD_Fan\PD_Fan\Software\EXAM\BLE\LIB\libCH57xBLE.a(ctl_input.o)
                0x000000000001606a                LL_Disconnect
 .text.LL_MD_Disconnect
                0x00000000000160a8       0x28 E:\PD_Fan\PD_Fan\Software\EXAM\BLE\LIB\libCH57xBLE.a(ctl_input.o)
                0x00000000000160a8                LL_MD_Disconnect
 .text.LL_ReadBDAddr
                0x00000000000160d0       0x24 E:\PD_Fan\PD_Fan\Software\EXAM\BLE\LIB\libCH57xBLE.a(ctl_input.o)
                0x00000000000160d0                LL_ReadBDAddr
 .text.LL_LE_ReadBufSize
                0x00000000000160f4       0x20 E:\PD_Fan\PD_Fan\Software\EXAM\BLE\LIB\libCH57xBLE.a(ctl_input.o)
                0x00000000000160f4                LL_LE_ReadBufSize
 .text.LL_SetRandomAddress
                0x0000000000016114       0xae E:\PD_Fan\PD_Fan\Software\EXAM\BLE\LIB\libCH57xBLE.a(ctl_input.o)
                0x0000000000016114                LL_SetRandomAddress
 .text.LL_SetAdvParam
                0x00000000000161c2       0xd0 E:\PD_Fan\PD_Fan\Software\EXAM\BLE\LIB\libCH57xBLE.a(ctl_input.o)
                0x00000000000161c2                LL_SetAdvParam
 .text.LL_SetAdvData
                0x0000000000016292       0x48 E:\PD_Fan\PD_Fan\Software\EXAM\BLE\LIB\libCH57xBLE.a(ctl_input.o)
                0x0000000000016292                LL_SetAdvData
 .text.LL_SetScanRspData
                0x00000000000162da       0x48 E:\PD_Fan\PD_Fan\Software\EXAM\BLE\LIB\libCH57xBLE.a(ctl_input.o)
                0x00000000000162da                LL_SetScanRspData
 .text.LL_SetAdvControl
                0x0000000000016322      0x10c E:\PD_Fan\PD_Fan\Software\EXAM\BLE\LIB\libCH57xBLE.a(ctl_input.o)
                0x0000000000016322                LL_SetAdvControl
 .text.LL_SetScanEnable
                0x000000000001642e       0x94 E:\PD_Fan\PD_Fan\Software\EXAM\BLE\LIB\libCH57xBLE.a(ctl_input.o)
                0x000000000001642e                LL_SetScanEnable
 .text.LL_CreateConnCancel
                0x00000000000164c2       0x26 E:\PD_Fan\PD_Fan\Software\EXAM\BLE\LIB\libCH57xBLE.a(ctl_input.o)
                0x00000000000164c2                LL_CreateConnCancel
 .text.LL_RemoteConnParamReqReply
                0x00000000000164e8      0x140 E:\PD_Fan\PD_Fan\Software\EXAM\BLE\LIB\libCH57xBLE.a(ctl_input.o)
                0x00000000000164e8                LL_RemoteConnParamReqReply
 .text.LL_RemoteConnParamReqNegReply
                0x0000000000016628       0x3a E:\PD_Fan\PD_Fan\Software\EXAM\BLE\LIB\libCH57xBLE.a(ctl_input.o)
                0x0000000000016628                LL_RemoteConnParamReqNegReply
 .text.LL_AddWhiteListDevice
                0x0000000000016662       0x8a E:\PD_Fan\PD_Fan\Software\EXAM\BLE\LIB\libCH57xBLE.a(ctl_input.o)
                0x0000000000016662                LL_AddWhiteListDevice
 .text.LL_ConnUpdate
                0x00000000000166ec      0x13e E:\PD_Fan\PD_Fan\Software\EXAM\BLE\LIB\libCH57xBLE.a(ctl_input.o)
                0x00000000000166ec                LL_ConnUpdate
 .text.LL_ClearWhiteList
                0x000000000001682a       0x52 E:\PD_Fan\PD_Fan\Software\EXAM\BLE\LIB\libCH57xBLE.a(ctl_input.o)
                0x000000000001682a                LL_ClearWhiteList
 .text.LL_Rand  0x000000000001687c       0x36 E:\PD_Fan\PD_Fan\Software\EXAM\BLE\LIB\libCH57xBLE.a(ctl_input.o)
                0x000000000001687c                LL_Rand
 .text.LL_StartEncrypt
                0x00000000000168b2      0x18c E:\PD_Fan\PD_Fan\Software\EXAM\BLE\LIB\libCH57xBLE.a(ctl_input.o)
                0x00000000000168b2                LL_StartEncrypt
 .text.LL_LtkReqReply
                0x0000000000016a3e       0xba E:\PD_Fan\PD_Fan\Software\EXAM\BLE\LIB\libCH57xBLE.a(ctl_input.o)
                0x0000000000016a3e                LL_LtkReqReply
 .text.LL_LtkReqNegReply
                0x0000000000016af8       0x4a E:\PD_Fan\PD_Fan\Software\EXAM\BLE\LIB\libCH57xBLE.a(ctl_input.o)
                0x0000000000016af8                LL_LtkReqNegReply
 .text.LL_AddDeviceToResolvingList
                0x0000000000016b42       0xac E:\PD_Fan\PD_Fan\Software\EXAM\BLE\LIB\libCH57xBLE.a(ctl_input.o)
                0x0000000000016b42                LL_AddDeviceToResolvingList
 .text.LL_ClearResolvingList
                0x0000000000016bee       0x10 E:\PD_Fan\PD_Fan\Software\EXAM\BLE\LIB\libCH57xBLE.a(ctl_input.o)
                0x0000000000016bee                LL_ClearResolvingList
 .text.LL_SetAddressResolvableEnable
                0x0000000000016bfe       0x54 E:\PD_Fan\PD_Fan\Software\EXAM\BLE\LIB\libCH57xBLE.a(ctl_input.o)
                0x0000000000016bfe                LL_SetAddressResolvableEnable
 .text.LL_SetResolvableAddressTimeout
                0x0000000000016c52       0x4c E:\PD_Fan\PD_Fan\Software\EXAM\BLE\LIB\libCH57xBLE.a(ctl_input.o)
                0x0000000000016c52                LL_SetResolvableAddressTimeout
 .text.LL_SendDataPkt
                0x0000000000016c9e       0xa8 E:\PD_Fan\PD_Fan\Software\EXAM\BLE\LIB\libCH57xBLE.a(ctl_input.o)
                0x0000000000016c9e                LL_SendDataPkt
 .text.HCI_LE_ConnectionCompleteCback
                0x0000000000016d46        0xa E:\PD_Fan\PD_Fan\Software\EXAM\BLE\LIB\libCH57xBLE.a(ctl_output.o)
                0x0000000000016d46                HCI_LE_ConnectionCompleteCback
 .text.HCI_LE_ConnectionUpdateCompleteCback
                0x0000000000016d50        0x4 E:\PD_Fan\PD_Fan\Software\EXAM\BLE\LIB\libCH57xBLE.a(ctl_output.o)
                0x0000000000016d50                HCI_LE_ConnectionUpdateCompleteCback
 .text.HCI_LE_ReadRemoteUsedFeaturesCompleteCback
                0x0000000000016d54        0x4 E:\PD_Fan\PD_Fan\Software\EXAM\BLE\LIB\libCH57xBLE.a(ctl_output.o)
                0x0000000000016d54                HCI_LE_ReadRemoteUsedFeaturesCompleteCback
 .text.HCI_LE_LongTermKeyRequestCback
                0x0000000000016d58        0x4 E:\PD_Fan\PD_Fan\Software\EXAM\BLE\LIB\libCH57xBLE.a(ctl_output.o)
                0x0000000000016d58                HCI_LE_LongTermKeyRequestCback
 .text.HCI_LE_RemoteConnectionParameterRequestCback
                0x0000000000016d5c        0x4 E:\PD_Fan\PD_Fan\Software\EXAM\BLE\LIB\libCH57xBLE.a(ctl_output.o)
                0x0000000000016d5c                HCI_LE_RemoteConnectionParameterRequestCback
 .text.HCI_RemoteConnectionParameterRequestCback
                0x0000000000016d60        0x4 E:\PD_Fan\PD_Fan\Software\EXAM\BLE\LIB\libCH57xBLE.a(ctl_output.o)
                0x0000000000016d60                HCI_RemoteConnectionParameterRequestCback
 .text.HCI_LE_DataLengthChangeCback
                0x0000000000016d64        0x4 E:\PD_Fan\PD_Fan\Software\EXAM\BLE\LIB\libCH57xBLE.a(ctl_output.o)
                0x0000000000016d64                HCI_LE_DataLengthChangeCback
 .text.HCI_LE_EnhancedConnectionCompleteCback
                0x0000000000016d68       0x16 E:\PD_Fan\PD_Fan\Software\EXAM\BLE\LIB\libCH57xBLE.a(ctl_output.o)
                0x0000000000016d68                HCI_LE_EnhancedConnectionCompleteCback
 .text.HCI_DisconnectionCompleteCback
                0x0000000000016d7e        0x4 E:\PD_Fan\PD_Fan\Software\EXAM\BLE\LIB\libCH57xBLE.a(ctl_output.o)
                0x0000000000016d7e                HCI_DisconnectionCompleteCback
 .text.HCI_EncryptionChangeCback
                0x0000000000016d82        0x4 E:\PD_Fan\PD_Fan\Software\EXAM\BLE\LIB\libCH57xBLE.a(ctl_output.o)
                0x0000000000016d82                HCI_EncryptionChangeCback
 .text.HCI_ReadRemoteVersionInfoCback
                0x0000000000016d86        0x4 E:\PD_Fan\PD_Fan\Software\EXAM\BLE\LIB\libCH57xBLE.a(ctl_output.o)
                0x0000000000016d86                HCI_ReadRemoteVersionInfoCback
 .text.HCI_CommandCompleteCback
                0x0000000000016d8a        0x4 E:\PD_Fan\PD_Fan\Software\EXAM\BLE\LIB\libCH57xBLE.a(ctl_output.o)
                0x0000000000016d8a                HCI_CommandCompleteCback
 .text.HCI_CommandStatusCback
                0x0000000000016d8e        0x4 E:\PD_Fan\PD_Fan\Software\EXAM\BLE\LIB\libCH57xBLE.a(ctl_output.o)
                0x0000000000016d8e                HCI_CommandStatusCback
 .text.HCI_NumberOfCompletedPacketsCback
                0x0000000000016d92        0x4 E:\PD_Fan\PD_Fan\Software\EXAM\BLE\LIB\libCH57xBLE.a(ctl_output.o)
                0x0000000000016d92                HCI_NumberOfCompletedPacketsCback
 .text.HCI_DataBufferOverflowCback
                0x0000000000016d96        0x4 E:\PD_Fan\PD_Fan\Software\EXAM\BLE\LIB\libCH57xBLE.a(ctl_output.o)
                0x0000000000016d96                HCI_DataBufferOverflowCback
 .text.HCI_EncryptionKeyRefreshCompleteCback
                0x0000000000016d9a        0x4 E:\PD_Fan\PD_Fan\Software\EXAM\BLE\LIB\libCH57xBLE.a(ctl_output.o)
                0x0000000000016d9a                HCI_EncryptionKeyRefreshCompleteCback
 .text.HCI_AuthenticatedPayloadTimeoutExpiredCback
                0x0000000000016d9e        0x2 E:\PD_Fan\PD_Fan\Software\EXAM\BLE\LIB\libCH57xBLE.a(ctl_output.o)
                0x0000000000016d9e                HCI_AuthenticatedPayloadTimeoutExpiredCback
 .text.HCI_RxDataCompleteCback
                0x0000000000016da0        0x4 E:\PD_Fan\PD_Fan\Software\EXAM\BLE\LIB\libCH57xBLE.a(ctl_output.o)
                0x0000000000016da0                HCI_RxDataCompleteCback
 .text.GAPRole_BroadcasterSetCB
                0x0000000000016da4        0x6 E:\PD_Fan\PD_Fan\Software\EXAM\BLE\LIB\libCH57xBLE.a(broadcaster.o)
                0x0000000000016da4                GAPRole_BroadcasterSetCB
 .text.gapBondMgrInvertCharCfgItem
                0x0000000000016daa       0x24 E:\PD_Fan\PD_Fan\Software\EXAM\BLE\LIB\libCH57xBLE.a(gapbondmgr.o)
 .text.gapBondMgrGetStateFlags
                0x0000000000016dce       0x2a E:\PD_Fan\PD_Fan\Software\EXAM\BLE\LIB\libCH57xBLE.a(gapbondmgr.o)
 .text.gapBondMgrBondTotal
                0x0000000000016df8       0x4c E:\PD_Fan\PD_Fan\Software\EXAM\BLE\LIB\libCH57xBLE.a(gapbondmgr.o)
 .text.gapBondFreeAuthEvt
                0x0000000000016e44       0x34 E:\PD_Fan\PD_Fan\Software\EXAM\BLE\LIB\libCH57xBLE.a(gapbondmgr.o)
 .text.gapBondMgrEraseBonding
                0x0000000000016e78      0x126 E:\PD_Fan\PD_Fan\Software\EXAM\BLE\LIB\libCH57xBLE.a(gapbondmgr.o)
 .text.gapBondMgrEraseAllBondings
                0x0000000000016f9e       0x2a E:\PD_Fan\PD_Fan\Software\EXAM\BLE\LIB\libCH57xBLE.a(gapbondmgr.o)
 .text.gapBondMgr_SyncWhiteList
                0x0000000000016fc8       0x4c E:\PD_Fan\PD_Fan\Software\EXAM\BLE\LIB\libCH57xBLE.a(gapbondmgr.o)
 .text.gapBondMgr_SyncResolveList
                0x0000000000017014       0x94 E:\PD_Fan\PD_Fan\Software\EXAM\BLE\LIB\libCH57xBLE.a(gapbondmgr.o)
 .text.gapBondSetupPrivFlag
                0x00000000000170a8       0x28 E:\PD_Fan\PD_Fan\Software\EXAM\BLE\LIB\libCH57xBLE.a(gapbondmgr.o)
 .text.gapBondMgrReadBonds
                0x00000000000170d0       0xac E:\PD_Fan\PD_Fan\Software\EXAM\BLE\LIB\libCH57xBLE.a(gapbondmgr.o)
 .text.gapBondMgrSendServiceChange
                0x000000000001717c        0xc E:\PD_Fan\PD_Fan\Software\EXAM\BLE\LIB\libCH57xBLE.a(gapbondmgr.o)
 .text.gapBondMgrBondReq
                0x0000000000017188       0x70 E:\PD_Fan\PD_Fan\Software\EXAM\BLE\LIB\libCH57xBLE.a(gapbondmgr.o)
 .text.gapBondMgrAuthenticate
                0x00000000000171f8      0x158 E:\PD_Fan\PD_Fan\Software\EXAM\BLE\LIB\libCH57xBLE.a(gapbondmgr.o)
 .text.gapBondMgrFindAddr
                0x0000000000017350       0x46 E:\PD_Fan\PD_Fan\Software\EXAM\BLE\LIB\libCH57xBLE.a(gapbondmgr.o)
 .text.gapBondMgrAddBond
                0x0000000000017396      0x19c E:\PD_Fan\PD_Fan\Software\EXAM\BLE\LIB\libCH57xBLE.a(gapbondmgr.o)
 .text.gapBondPairStateCB
                0x0000000000017532       0x48 E:\PD_Fan\PD_Fan\Software\EXAM\BLE\LIB\libCH57xBLE.a(gapbondmgr.o)
 .text.gapBondPasscodeCB
                0x000000000001757a       0x82 E:\PD_Fan\PD_Fan\Software\EXAM\BLE\LIB\libCH57xBLE.a(gapbondmgr.o)
 .text.gapBondMgrGetPublicAddr
                0x00000000000175fc       0x4a E:\PD_Fan\PD_Fan\Software\EXAM\BLE\LIB\libCH57xBLE.a(gapbondmgr.o)
 .text.gapBondMgrChangeState.constprop.9
                0x0000000000017646       0x74 E:\PD_Fan\PD_Fan\Software\EXAM\BLE\LIB\libCH57xBLE.a(gapbondmgr.o)
 .text.gapBondMgrUpdateCharCfg
                0x00000000000176ba       0xde E:\PD_Fan\PD_Fan\Software\EXAM\BLE\LIB\libCH57xBLE.a(gapbondmgr.o)
 .text.GAPBondMgr_ParamInit
                0x0000000000017798      0x166 E:\PD_Fan\PD_Fan\Software\EXAM\BLE\LIB\libCH57xBLE.a(gapbondmgr.o)
                0x0000000000017798                GAPBondMgr_ParamInit
 .text.GAPBondMgr_Erase
                0x00000000000178fe       0x6a E:\PD_Fan\PD_Fan\Software\EXAM\BLE\LIB\libCH57xBLE.a(gapbondmgr.o)
                0x00000000000178fe                GAPBondMgr_Erase
 .text.GAPBondMgr_GetParameter
                0x0000000000017968       0xf8 E:\PD_Fan\PD_Fan\Software\EXAM\BLE\LIB\libCH57xBLE.a(gapbondmgr.o)
                0x0000000000017968                GAPBondMgr_GetParameter
 .text.GAPBondMgr_LinkTerm
                0x0000000000017a60       0x9a E:\PD_Fan\PD_Fan\Software\EXAM\BLE\LIB\libCH57xBLE.a(gapbondmgr.o)
                0x0000000000017a60                GAPBondMgr_LinkTerm
 .text.GAPBondMgr_ResolveAddr
                0x0000000000017afa       0xdc E:\PD_Fan\PD_Fan\Software\EXAM\BLE\LIB\libCH57xBLE.a(gapbondmgr.o)
                0x0000000000017afa                GAPBondMgr_ResolveAddr
 .text.GAPBondMgr_SlaveReqSecurity
                0x0000000000017bd6       0x7a E:\PD_Fan\PD_Fan\Software\EXAM\BLE\LIB\libCH57xBLE.a(gapbondmgr.o)
                0x0000000000017bd6                GAPBondMgr_SlaveReqSecurity
 .text.GAPBondMgr_ServiceChangeInd
                0x0000000000017c50       0x88 E:\PD_Fan\PD_Fan\Software\EXAM\BLE\LIB\libCH57xBLE.a(gapbondmgr.o)
                0x0000000000017c50                GAPBondMgr_ServiceChangeInd
 .text.GAPBondMgr_UpdateCharCfg
                0x0000000000017cd8       0x76 E:\PD_Fan\PD_Fan\Software\EXAM\BLE\LIB\libCH57xBLE.a(gapbondmgr.o)
                0x0000000000017cd8                GAPBondMgr_UpdateCharCfg
 .text.GAPBondMgr_PeripheralRegister
                0x0000000000017d4e       0x2e E:\PD_Fan\PD_Fan\Software\EXAM\BLE\LIB\libCH57xBLE.a(gapbondmgr.o)
                0x0000000000017d4e                GAPBondMgr_PeripheralRegister
 .text.GAPBondMgr_PeriSecurityReq
                0x0000000000017d7c       0x18 E:\PD_Fan\PD_Fan\Software\EXAM\BLE\LIB\libCH57xBLE.a(gapbondmgr.o)
                0x0000000000017d7c                GAPBondMgr_PeriSecurityReq
 .text.GAPBondMgr_LinkEst
                0x0000000000017d94      0x148 E:\PD_Fan\PD_Fan\Software\EXAM\BLE\LIB\libCH57xBLE.a(gapbondmgr.o)
                0x0000000000017d94                GAPBondMgr_LinkEst
 .text.GAPBondMgr_Init
                0x0000000000017edc       0x18 E:\PD_Fan\PD_Fan\Software\EXAM\BLE\LIB\libCH57xBLE.a(gapbondmgr.o)
                0x0000000000017edc                GAPBondMgr_Init
 .text.gapBondMgr_SyncResolveListUpdate
                0x0000000000017ef4       0xc0 E:\PD_Fan\PD_Fan\Software\EXAM\BLE\LIB\libCH57xBLE.a(gapbondmgr.o)
                0x0000000000017ef4                gapBondMgr_SyncResolveListUpdate
 .text.GAPBondMgr_SetParameter
                0x0000000000017fb4      0x4ba E:\PD_Fan\PD_Fan\Software\EXAM\BLE\LIB\libCH57xBLE.a(gapbondmgr.o)
                0x0000000000017fb4                GAPBondMgr_SetParameter
 .text.GAPBondMgr_ProcessGAPMsg
                0x000000000001846e      0x28e E:\PD_Fan\PD_Fan\Software\EXAM\BLE\LIB\libCH57xBLE.a(gapbondmgr.o)
                0x000000000001846e                GAPBondMgr_ProcessGAPMsg
 .text.GAPBondMgr_ProcessEvent
                0x00000000000186fc      0x1c0 E:\PD_Fan\PD_Fan\Software\EXAM\BLE\LIB\libCH57xBLE.a(gapbondmgr.o)
                0x00000000000186fc                GAPBondMgr_ProcessEvent
 .text.gapRole_PeripheralProcessTMOSMsg
                0x00000000000188bc      0x270 E:\PD_Fan\PD_Fan\Software\EXAM\BLE\LIB\libCH57xBLE.a(peripheral.o)
 .text.GAPRole_PeripheralProcessEvent
                0x0000000000018b2c      0x18c E:\PD_Fan\PD_Fan\Software\EXAM\BLE\LIB\libCH57xBLE.a(peripheral.o)
                0x0000000000018b2c                GAPRole_PeripheralProcessEvent
 .text.GAPRole_PeripheralConnParamUpdateReq
                0x0000000000018cb8       0x6a E:\PD_Fan\PD_Fan\Software\EXAM\BLE\LIB\libCH57xBLE.a(peripheral.o)
                0x0000000000018cb8                GAPRole_PeripheralConnParamUpdateReq
 .text.GAPRole_PeripheralStartDevice
                0x0000000000018d22       0x56 E:\PD_Fan\PD_Fan\Software\EXAM\BLE\LIB\libCH57xBLE.a(peripheral.o)
                0x0000000000018d22                GAPRole_PeripheralStartDevice
 .text.GAPRole_PeripheralEnable
                0x0000000000018d78       0xec E:\PD_Fan\PD_Fan\Software\EXAM\BLE\LIB\libCH57xBLE.a(peripheral.o)
                0x0000000000018d78                GAPRole_PeripheralEnable
 .text.GAPRole_ParamInit
                0x0000000000018e64       0xb0 E:\PD_Fan\PD_Fan\Software\EXAM\BLE\LIB\libCH57xBLE.a(role.o)
                0x0000000000018e64                GAPRole_ParamInit
 .text.GAPRole_GetParameter
                0x0000000000018f14       0xdc E:\PD_Fan\PD_Fan\Software\EXAM\BLE\LIB\libCH57xBLE.a(role.o)
                0x0000000000018f14                GAPRole_GetParameter
 .text.GAPRole_SetParameter
                0x0000000000018ff0      0x268 E:\PD_Fan\PD_Fan\Software\EXAM\BLE\LIB\libCH57xBLE.a(role.o)
                0x0000000000018ff0                GAPRole_SetParameter
 .text.GAPRole_TerminateLink
                0x0000000000019258       0x24 E:\PD_Fan\PD_Fan\Software\EXAM\BLE\LIB\libCH57xBLE.a(role.o)
                0x0000000000019258                GAPRole_TerminateLink
 .text.GAPRole_PeripheralInit
                0x000000000001927c       0x70 E:\PD_Fan\PD_Fan\Software\EXAM\BLE\LIB\libCH57xBLE.a(role.o)
                0x000000000001927c                GAPRole_PeripheralInit
 .text.tmos_memory_init
                0x00000000000192ec       0x5a E:\PD_Fan\PD_Fan\Software\EXAM\BLE\LIB\libCH57xBLE.a(memory.o)
                0x00000000000192ec                tmos_memory_init
 .text.tmos_bm_adjust_header
                0x0000000000019346       0x34 E:\PD_Fan\PD_Fan\Software\EXAM\BLE\LIB\libCH57xBLE.a(memory.o)
                0x0000000000019346                tmos_bm_adjust_header
 .text.ATT_BuildExchangeMTURsp
                0x000000000001937a       0x16 E:\PD_Fan\PD_Fan\Software\EXAM\BLE\LIB\libCH57xBLE.a(att_server.o)
                0x000000000001937a                ATT_BuildExchangeMTURsp
 .text.ATT_BuildFindInfoRsp
                0x0000000000019390       0x24 E:\PD_Fan\PD_Fan\Software\EXAM\BLE\LIB\libCH57xBLE.a(att_server.o)
                0x0000000000019390                ATT_BuildFindInfoRsp
 .text.ATT_BuildFindByTypeValueRsp
                0x00000000000193b4        0xc E:\PD_Fan\PD_Fan\Software\EXAM\BLE\LIB\libCH57xBLE.a(att_server.o)
                0x00000000000193b4                ATT_BuildFindByTypeValueRsp
 .text.ATT_BuildReadByTypeRsp
                0x00000000000193c0       0x1c E:\PD_Fan\PD_Fan\Software\EXAM\BLE\LIB\libCH57xBLE.a(att_server.o)
                0x00000000000193c0                ATT_BuildReadByTypeRsp
 .text.ATT_BuildReadRsp
                0x00000000000193dc        0x6 E:\PD_Fan\PD_Fan\Software\EXAM\BLE\LIB\libCH57xBLE.a(att_server.o)
                0x00000000000193dc                ATT_BuildReadRsp
 .text.ATT_BuildReadBlobRsp
                0x00000000000193e2        0x6 E:\PD_Fan\PD_Fan\Software\EXAM\BLE\LIB\libCH57xBLE.a(att_server.o)
                0x00000000000193e2                ATT_BuildReadBlobRsp
 .text.ATT_BuildReadMultiRsp
                0x00000000000193e8        0x6 E:\PD_Fan\PD_Fan\Software\EXAM\BLE\LIB\libCH57xBLE.a(att_server.o)
                0x00000000000193e8                ATT_BuildReadMultiRsp
 .text.ATT_BuildReadByGrpTypeRsp
                0x00000000000193ee       0x1c E:\PD_Fan\PD_Fan\Software\EXAM\BLE\LIB\libCH57xBLE.a(att_server.o)
                0x00000000000193ee                ATT_BuildReadByGrpTypeRsp
 .text.ATT_BuildPrepareWriteRsp
                0x000000000001940a       0x30 E:\PD_Fan\PD_Fan\Software\EXAM\BLE\LIB\libCH57xBLE.a(att_server.o)
                0x000000000001940a                ATT_BuildPrepareWriteRsp
 .text.ATT_BuildHandleValueInd
                0x000000000001943a       0x1e E:\PD_Fan\PD_Fan\Software\EXAM\BLE\LIB\libCH57xBLE.a(att_server.o)
                0x000000000001943a                ATT_BuildHandleValueInd
 .text.ATT_ParseExchangeMTUReq
                0x0000000000019458       0x1c E:\PD_Fan\PD_Fan\Software\EXAM\BLE\LIB\libCH57xBLE.a(att_server.o)
                0x0000000000019458                ATT_ParseExchangeMTUReq
 .text.ATT_ExchangeMTURsp
                0x0000000000019474       0x20 E:\PD_Fan\PD_Fan\Software\EXAM\BLE\LIB\libCH57xBLE.a(att_server.o)
                0x0000000000019474                ATT_ExchangeMTURsp
 .text.ATT_ParseFindInfoReq
                0x0000000000019494       0x2a E:\PD_Fan\PD_Fan\Software\EXAM\BLE\LIB\libCH57xBLE.a(att_server.o)
                0x0000000000019494                ATT_ParseFindInfoReq
 .text.ATT_FindInfoRsp
                0x00000000000194be       0x52 E:\PD_Fan\PD_Fan\Software\EXAM\BLE\LIB\libCH57xBLE.a(att_server.o)
                0x00000000000194be                ATT_FindInfoRsp
 .text.ATT_ParseFindByTypeValueReq
                0x0000000000019510       0x78 E:\PD_Fan\PD_Fan\Software\EXAM\BLE\LIB\libCH57xBLE.a(att_server.o)
                0x0000000000019510                ATT_ParseFindByTypeValueReq
 .text.ATT_FindByTypeValueRsp
                0x0000000000019588       0x42 E:\PD_Fan\PD_Fan\Software\EXAM\BLE\LIB\libCH57xBLE.a(att_server.o)
                0x0000000000019588                ATT_FindByTypeValueRsp
 .text.ATT_ParseReadByTypeReq
                0x00000000000195ca       0x5a E:\PD_Fan\PD_Fan\Software\EXAM\BLE\LIB\libCH57xBLE.a(att_server.o)
                0x00000000000195ca                ATT_ParseReadByTypeReq
 .text.ATT_ReadByTypeRsp
                0x0000000000019624       0x42 E:\PD_Fan\PD_Fan\Software\EXAM\BLE\LIB\libCH57xBLE.a(att_server.o)
                0x0000000000019624                ATT_ReadByTypeRsp
 .text.ATT_ParseReadReq
                0x0000000000019666       0x1c E:\PD_Fan\PD_Fan\Software\EXAM\BLE\LIB\libCH57xBLE.a(att_server.o)
                0x0000000000019666                ATT_ParseReadReq
 .text.ATT_ReadRsp
                0x0000000000019682       0x32 E:\PD_Fan\PD_Fan\Software\EXAM\BLE\LIB\libCH57xBLE.a(att_server.o)
                0x0000000000019682                ATT_ReadRsp
 .text.ATT_ParseReadBlobReq
                0x00000000000196b4       0x2a E:\PD_Fan\PD_Fan\Software\EXAM\BLE\LIB\libCH57xBLE.a(att_server.o)
                0x00000000000196b4                ATT_ParseReadBlobReq
 .text.ATT_ReadBlobRsp
                0x00000000000196de       0x30 E:\PD_Fan\PD_Fan\Software\EXAM\BLE\LIB\libCH57xBLE.a(att_server.o)
                0x00000000000196de                ATT_ReadBlobRsp
 .text.ATT_ParseReadMultiReq
                0x000000000001970e       0x1a E:\PD_Fan\PD_Fan\Software\EXAM\BLE\LIB\libCH57xBLE.a(att_server.o)
                0x000000000001970e                ATT_ParseReadMultiReq
 .text.ATT_ReadMultiRsp
                0x0000000000019728       0x38 E:\PD_Fan\PD_Fan\Software\EXAM\BLE\LIB\libCH57xBLE.a(att_server.o)
                0x0000000000019728                ATT_ReadMultiRsp
 .text.ATT_ReadByGrpTypeRsp
                0x0000000000019760       0x42 E:\PD_Fan\PD_Fan\Software\EXAM\BLE\LIB\libCH57xBLE.a(att_server.o)
                0x0000000000019760                ATT_ReadByGrpTypeRsp
 .text.ATT_ParseWriteReq
                0x00000000000197a2       0x3e E:\PD_Fan\PD_Fan\Software\EXAM\BLE\LIB\libCH57xBLE.a(att_server.o)
                0x00000000000197a2                ATT_ParseWriteReq
 .text.ATT_WriteRsp
                0x00000000000197e0        0xc E:\PD_Fan\PD_Fan\Software\EXAM\BLE\LIB\libCH57xBLE.a(att_server.o)
                0x00000000000197e0                ATT_WriteRsp
 .text.ATT_ParsePrepareWriteReq
                0x00000000000197ec       0x42 E:\PD_Fan\PD_Fan\Software\EXAM\BLE\LIB\libCH57xBLE.a(att_server.o)
                0x00000000000197ec                ATT_ParsePrepareWriteReq
 .text.ATT_PrepareWriteRsp
                0x000000000001982e       0x30 E:\PD_Fan\PD_Fan\Software\EXAM\BLE\LIB\libCH57xBLE.a(att_server.o)
                0x000000000001982e                ATT_PrepareWriteRsp
 .text.ATT_ParseExecuteWriteReq
                0x000000000001985e       0x14 E:\PD_Fan\PD_Fan\Software\EXAM\BLE\LIB\libCH57xBLE.a(att_server.o)
                0x000000000001985e                ATT_ParseExecuteWriteReq
 .text.ATT_ExecuteWriteRsp
                0x0000000000019872        0xc E:\PD_Fan\PD_Fan\Software\EXAM\BLE\LIB\libCH57xBLE.a(att_server.o)
                0x0000000000019872                ATT_ExecuteWriteRsp
 .text.ATT_HandleValueNoti
                0x000000000001987e       0x32 E:\PD_Fan\PD_Fan\Software\EXAM\BLE\LIB\libCH57xBLE.a(att_server.o)
                0x000000000001987e                ATT_HandleValueNoti
 .text.ATT_HandleValueInd
                0x00000000000198b0       0x32 E:\PD_Fan\PD_Fan\Software\EXAM\BLE\LIB\libCH57xBLE.a(att_server.o)
                0x00000000000198b0                ATT_HandleValueInd
 .text.ll_get_prime_number
                0x00000000000198e2       0x3c E:\PD_Fan\PD_Fan\Software\EXAM\BLE\LIB\libCH57xBLE.a(ll.o)
                0x00000000000198e2                ll_get_prime_number
 .text.LL_ProcessEvent
                0x000000000001991e      0x130 E:\PD_Fan\PD_Fan\Software\EXAM\BLE\LIB\libCH57xBLE.a(ll.o)
                0x000000000001991e                LL_ProcessEvent
 .text.LL_Init  0x0000000000019a4e       0xb2 E:\PD_Fan\PD_Fan\Software\EXAM\BLE\LIB\libCH57xBLE.a(ll.o)
                0x0000000000019a4e                LL_Init
 .text.llAdvertiseSet
                0x0000000000019b00      0x152 E:\PD_Fan\PD_Fan\Software\EXAM\BLE\LIB\libCH57xBLE.a(ll_advertise.o)
                0x0000000000019b00                llAdvertiseSet
 .text.llAdvertiseCreateCore
                0x0000000000019c52       0x78 E:\PD_Fan\PD_Fan\Software\EXAM\BLE\LIB\libCH57xBLE.a(ll_advertise.o)
 .text.ll_advertise_tx
                0x0000000000019cca      0x280 E:\PD_Fan\PD_Fan\Software\EXAM\BLE\LIB\libCH57xBLE.a(ll_advertise.o)
 .text.llAdvTraverseallChannel
                0x0000000000019f4a       0x88 E:\PD_Fan\PD_Fan\Software\EXAM\BLE\LIB\libCH57xBLE.a(ll_advertise.o)
                0x0000000000019f4a                llAdvTraverseallChannel
 .text.llAdvertiseStart
                0x0000000000019fd2       0xde E:\PD_Fan\PD_Fan\Software\EXAM\BLE\LIB\libCH57xBLE.a(ll_advertise.o)
                0x0000000000019fd2                llAdvertiseStart
 .text.ll_advertise_filter
                0x000000000001a0b0      0x156 E:\PD_Fan\PD_Fan\Software\EXAM\BLE\LIB\libCH57xBLE.a(ll_advertise.o)
                0x000000000001a0b0                ll_advertise_filter
 .text.LL_AdvertiseToStandby
                0x000000000001a206       0x7e E:\PD_Fan\PD_Fan\Software\EXAM\BLE\LIB\libCH57xBLE.a(ll_advertise.o)
                0x000000000001a206                LL_AdvertiseToStandby
 .text.ll_advertise_process
                0x000000000001a284      0x422 E:\PD_Fan\PD_Fan\Software\EXAM\BLE\LIB\libCH57xBLE.a(ll_advertise.o)
                0x000000000001a284                ll_advertise_process
 .text.LL_AdvertiseDirectTimeout
                0x000000000001a6a6       0x1a E:\PD_Fan\PD_Fan\Software\EXAM\BLE\LIB\libCH57xBLE.a(ll_advertise.o)
                0x000000000001a6a6                LL_AdvertiseDirectTimeout
 .text.LL_AdvertiseEnalbe
                0x000000000001a6c0       0x46 E:\PD_Fan\PD_Fan\Software\EXAM\BLE\LIB\libCH57xBLE.a(ll_advertise.o)
                0x000000000001a6c0                LL_AdvertiseEnalbe
 .text.LL_InitiateToStandby
                0x000000000001a706       0x94 E:\PD_Fan\PD_Fan\Software\EXAM\BLE\LIB\libCH57xBLE.a(ll_initiate.o)
                0x000000000001a706                LL_InitiateToStandby
 .text.ll_resolvinglist_checkRPA
                0x000000000001a79a       0x6c E:\PD_Fan\PD_Fan\Software\EXAM\BLE\LIB\libCH57xBLE.a(ll_resolvinglist.o)
                0x000000000001a79a                ll_resolvinglist_checkRPA
 .text.ll_resolvinglist_renew_rpa
                0x000000000001a806       0x4a E:\PD_Fan\PD_Fan\Software\EXAM\BLE\LIB\libCH57xBLE.a(ll_resolvinglist.o)
                0x000000000001a806                ll_resolvinglist_renew_rpa
 .text.ll_resolvinglist_renew_set
                0x000000000001a850       0x12 E:\PD_Fan\PD_Fan\Software\EXAM\BLE\LIB\libCH57xBLE.a(ll_resolvinglist.o)
                0x000000000001a850                ll_resolvinglist_renew_set
 .text.ll_resolvinglist_timeout_renew_rpa
                0x000000000001a862       0x58 E:\PD_Fan\PD_Fan\Software\EXAM\BLE\LIB\libCH57xBLE.a(ll_resolvinglist.o)
                0x000000000001a862                ll_resolvinglist_timeout_renew_rpa
 .text.LL_ResolvinglistAdd
                0x000000000001a8ba      0x146 E:\PD_Fan\PD_Fan\Software\EXAM\BLE\LIB\libCH57xBLE.a(ll_resolvinglist.o)
                0x000000000001a8ba                LL_ResolvinglistAdd
 .text.LL_ResolvinglistClearall
                0x000000000001aa00       0x52 E:\PD_Fan\PD_Fan\Software\EXAM\BLE\LIB\libCH57xBLE.a(ll_resolvinglist.o)
                0x000000000001aa00                LL_ResolvinglistClearall
 .text.LL_ResolvinglistPeerIdentifyAddressGetIrk
                0x000000000001aa52       0x52 E:\PD_Fan\PD_Fan\Software\EXAM\BLE\LIB\libCH57xBLE.a(ll_resolvinglist.o)
                0x000000000001aa52                LL_ResolvinglistPeerIdentifyAddressGetIrk
 .text.LL_ResolvinglistPeerRpaAddressGetIrk
                0x000000000001aaa4       0x3c E:\PD_Fan\PD_Fan\Software\EXAM\BLE\LIB\libCH57xBLE.a(ll_resolvinglist.o)
                0x000000000001aaa4                LL_ResolvinglistPeerRpaAddressGetIrk
 .text.LL_ResolvinglistInit
                0x000000000001aae0       0x12 E:\PD_Fan\PD_Fan\Software\EXAM\BLE\LIB\libCH57xBLE.a(ll_resolvinglist.o)
                0x000000000001aae0                LL_ResolvinglistInit
 .text.LL_AddrGenerateResolvableAddress
                0x000000000001aaf2       0x9c E:\PD_Fan\PD_Fan\Software\EXAM\BLE\LIB\libCH57xBLE.a(ll_address.o)
                0x000000000001aaf2                LL_AddrGenerateResolvableAddress
 .text.LL_AddrInit
                0x000000000001ab8e      0x12e E:\PD_Fan\PD_Fan\Software\EXAM\BLE\LIB\libCH57xBLE.a(ll_address.o)
                0x000000000001ab8e                LL_AddrInit
 .text.__lshrdi3
                0x000000000001acbc       0x2c c:/mounriver/mounriver_studio/toolchain/risc-v embedded gcc/bin/../lib/gcc/riscv-none-embed/8.2.0/rv32imac/ilp32\libgcc.a(_lshrdi3.o)
                0x000000000001acbc                __lshrdi3
 .text.__udivdi3
                0x000000000001ace8      0x398 c:/mounriver/mounriver_studio/toolchain/risc-v embedded gcc/bin/../lib/gcc/riscv-none-embed/8.2.0/rv32imac/ilp32\libgcc.a(_udivdi3.o)
                0x000000000001ace8                __udivdi3
 .text.__muldf3
                0x000000000001b080      0x4b4 c:/mounriver/mounriver_studio/toolchain/risc-v embedded gcc/bin/../lib/gcc/riscv-none-embed/8.2.0/rv32imac/ilp32\libgcc.a(muldf3.o)
                0x000000000001b080                __muldf3
 .text.__floatsidf
                0x000000000001b534       0x70 c:/mounriver/mounriver_studio/toolchain/risc-v embedded gcc/bin/../lib/gcc/riscv-none-embed/8.2.0/rv32imac/ilp32\libgcc.a(floatsidf.o)
                0x000000000001b534                __floatsidf
 .text.__mulsf3
                0x000000000001b5a4      0x290 c:/mounriver/mounriver_studio/toolchain/risc-v embedded gcc/bin/../lib/gcc/riscv-none-embed/8.2.0/rv32imac/ilp32\libgcc.a(mulsf3.o)
                0x000000000001b5a4                __mulsf3
 .text.__fixsfsi
                0x000000000001b834       0x62 c:/mounriver/mounriver_studio/toolchain/risc-v embedded gcc/bin/../lib/gcc/riscv-none-embed/8.2.0/rv32imac/ilp32\libgcc.a(fixsfsi.o)
                0x000000000001b834                __fixsfsi
 .text.__fixunssfsi
                0x000000000001b896       0x56 c:/mounriver/mounriver_studio/toolchain/risc-v embedded gcc/bin/../lib/gcc/riscv-none-embed/8.2.0/rv32imac/ilp32\libgcc.a(fixunssfsi.o)
                0x000000000001b896                __fixunssfsi
 .text.__floatsisf
                0x000000000001b8ec       0xc6 c:/mounriver/mounriver_studio/toolchain/risc-v embedded gcc/bin/../lib/gcc/riscv-none-embed/8.2.0/rv32imac/ilp32\libgcc.a(floatsisf.o)
                0x000000000001b8ec                __floatsisf
 .text.__truncdfsf2
                0x000000000001b9b2      0x16a c:/mounriver/mounriver_studio/toolchain/risc-v embedded gcc/bin/../lib/gcc/riscv-none-embed/8.2.0/rv32imac/ilp32\libgcc.a(truncdfsf2.o)
                0x000000000001b9b2                __truncdfsf2
 .text.__clzsi2
                0x000000000001bb1c       0x76 c:/mounriver/mounriver_studio/toolchain/risc-v embedded gcc/bin/../lib/gcc/riscv-none-embed/8.2.0/rv32imac/ilp32\libgcc.a(_clzsi2.o)
                0x000000000001bb1c                __clzsi2
 .text.memcpy   0x000000000001bb92       0xb6 c:/mounriver/mounriver_studio/toolchain/risc-v embedded gcc/bin/../lib/gcc/riscv-none-embed/8.2.0/../../../../riscv-none-embed/lib/rv32imac/ilp32\libg_nano.a(lib_a-memcpy.o)
                0x000000000001bb92                memcpy
 .text.printf   0x000000000001bc48       0x40 c:/mounriver/mounriver_studio/toolchain/risc-v embedded gcc/bin/../lib/gcc/riscv-none-embed/8.2.0/../../../../riscv-none-embed/lib/rv32imac/ilp32\libg_nano.a(lib_a-printf.o)
                0x000000000001bc48                iprintf
                0x000000000001bc48                printf
 .text._puts_r  0x000000000001bc88       0xda c:/mounriver/mounriver_studio/toolchain/risc-v embedded gcc/bin/../lib/gcc/riscv-none-embed/8.2.0/../../../../riscv-none-embed/lib/rv32imac/ilp32\libg_nano.a(lib_a-puts.o)
                0x000000000001bc88                _puts_r
 .text.puts     0x000000000001bd62        0xc c:/mounriver/mounriver_studio/toolchain/risc-v embedded gcc/bin/../lib/gcc/riscv-none-embed/8.2.0/../../../../riscv-none-embed/lib/rv32imac/ilp32\libg_nano.a(lib_a-puts.o)
                0x000000000001bd62                puts
 .text._vsprintf_r
                0x000000000001bd6e       0x2e c:/mounriver/mounriver_studio/toolchain/risc-v embedded gcc/bin/../lib/gcc/riscv-none-embed/8.2.0/../../../../riscv-none-embed/lib/rv32imac/ilp32\libg_nano.a(lib_a-vsprintf.o)
                0x000000000001bd6e                _vsprintf_r
                0x000000000001bd6e                _vsiprintf_r
 .text.vsprintf
                0x000000000001bd9c       0x10 c:/mounriver/mounriver_studio/toolchain/risc-v embedded gcc/bin/../lib/gcc/riscv-none-embed/8.2.0/../../../../riscv-none-embed/lib/rv32imac/ilp32\libg_nano.a(lib_a-vsprintf.o)
                0x000000000001bd9c                vsiprintf
                0x000000000001bd9c                vsprintf
 .text.__swbuf_r
                0x000000000001bdac       0xc0 c:/mounriver/mounriver_studio/toolchain/risc-v embedded gcc/bin/../lib/gcc/riscv-none-embed/8.2.0/../../../../riscv-none-embed/lib/rv32imac/ilp32\libg_nano.a(lib_a-wbuf.o)
                0x000000000001bdac                __swbuf_r
 .text.__swsetup_r
                0x000000000001be6c      0x10c c:/mounriver/mounriver_studio/toolchain/risc-v embedded gcc/bin/../lib/gcc/riscv-none-embed/8.2.0/../../../../riscv-none-embed/lib/rv32imac/ilp32\libg_nano.a(lib_a-wsetup.o)
                0x000000000001be6c                __swsetup_r
 .text.__sflush_r
                0x000000000001bf78      0x13c c:/mounriver/mounriver_studio/toolchain/risc-v embedded gcc/bin/../lib/gcc/riscv-none-embed/8.2.0/../../../../riscv-none-embed/lib/rv32imac/ilp32\libg_nano.a(lib_a-fflush.o)
                0x000000000001bf78                __sflush_r
 .text._fflush_r
                0x000000000001c0b4       0x66 c:/mounriver/mounriver_studio/toolchain/risc-v embedded gcc/bin/../lib/gcc/riscv-none-embed/8.2.0/../../../../riscv-none-embed/lib/rv32imac/ilp32\libg_nano.a(lib_a-fflush.o)
                0x000000000001c0b4                _fflush_r
 .text.std      0x000000000001c11a       0x6a c:/mounriver/mounriver_studio/toolchain/risc-v embedded gcc/bin/../lib/gcc/riscv-none-embed/8.2.0/../../../../riscv-none-embed/lib/rv32imac/ilp32\libg_nano.a(lib_a-findfp.o)
 .text._cleanup_r
                0x000000000001c184        0xa c:/mounriver/mounriver_studio/toolchain/risc-v embedded gcc/bin/../lib/gcc/riscv-none-embed/8.2.0/../../../../riscv-none-embed/lib/rv32imac/ilp32\libg_nano.a(lib_a-findfp.o)
                0x000000000001c184                _cleanup_r
 .text.__sfmoreglue
                0x000000000001c18e       0x46 c:/mounriver/mounriver_studio/toolchain/risc-v embedded gcc/bin/../lib/gcc/riscv-none-embed/8.2.0/../../../../riscv-none-embed/lib/rv32imac/ilp32\libg_nano.a(lib_a-findfp.o)
                0x000000000001c18e                __sfmoreglue
 .text.__sinit  0x000000000001c1d4       0x70 c:/mounriver/mounriver_studio/toolchain/risc-v embedded gcc/bin/../lib/gcc/riscv-none-embed/8.2.0/../../../../riscv-none-embed/lib/rv32imac/ilp32\libg_nano.a(lib_a-findfp.o)
                0x000000000001c1d4                __sinit
 .text.__sfp    0x000000000001c244       0xa4 c:/mounriver/mounriver_studio/toolchain/risc-v embedded gcc/bin/../lib/gcc/riscv-none-embed/8.2.0/../../../../riscv-none-embed/lib/rv32imac/ilp32\libg_nano.a(lib_a-findfp.o)
                0x000000000001c244                __sfp
 .text._fwalk_reent
                0x000000000001c2e8       0x6c c:/mounriver/mounriver_studio/toolchain/risc-v embedded gcc/bin/../lib/gcc/riscv-none-embed/8.2.0/../../../../riscv-none-embed/lib/rv32imac/ilp32\libg_nano.a(lib_a-fwalk.o)
                0x000000000001c2e8                _fwalk_reent
 .text.__swhatbuf_r
                0x000000000001c354       0x5a c:/mounriver/mounriver_studio/toolchain/risc-v embedded gcc/bin/../lib/gcc/riscv-none-embed/8.2.0/../../../../riscv-none-embed/lib/rv32imac/ilp32\libg_nano.a(lib_a-makebuf.o)
                0x000000000001c354                __swhatbuf_r
 .text.__smakebuf_r
                0x000000000001c3ae       0xa0 c:/mounriver/mounriver_studio/toolchain/risc-v embedded gcc/bin/../lib/gcc/riscv-none-embed/8.2.0/../../../../riscv-none-embed/lib/rv32imac/ilp32\libg_nano.a(lib_a-makebuf.o)
                0x000000000001c3ae                __smakebuf_r
 .text._free_r  0x000000000001c44e       0xa8 c:/mounriver/mounriver_studio/toolchain/risc-v embedded gcc/bin/../lib/gcc/riscv-none-embed/8.2.0/../../../../riscv-none-embed/lib/rv32imac/ilp32\libg_nano.a(lib_a-nano-freer.o)
                0x000000000001c44e                _free_r
 .text._malloc_r
                0x000000000001c4f6       0xda c:/mounriver/mounriver_studio/toolchain/risc-v embedded gcc/bin/../lib/gcc/riscv-none-embed/8.2.0/../../../../riscv-none-embed/lib/rv32imac/ilp32\libg_nano.a(lib_a-nano-mallocr.o)
                0x000000000001c4f6                _malloc_r
 .text.__ssputs_r
                0x000000000001c5d0       0xee c:/mounriver/mounriver_studio/toolchain/risc-v embedded gcc/bin/../lib/gcc/riscv-none-embed/8.2.0/../../../../riscv-none-embed/lib/rv32imac/ilp32\libg_nano.a(lib_a-nano-svfprintf.o)
                0x000000000001c5d0                __ssputs_r
 .text._svfprintf_r
                0x000000000001c6be      0x280 c:/mounriver/mounriver_studio/toolchain/risc-v embedded gcc/bin/../lib/gcc/riscv-none-embed/8.2.0/../../../../riscv-none-embed/lib/rv32imac/ilp32\libg_nano.a(lib_a-nano-svfprintf.o)
                0x000000000001c6be                _svfiprintf_r
                0x000000000001c6be                _svfprintf_r
 .text.__sfputc_r
                0x000000000001c93e       0x2a c:/mounriver/mounriver_studio/toolchain/risc-v embedded gcc/bin/../lib/gcc/riscv-none-embed/8.2.0/../../../../riscv-none-embed/lib/rv32imac/ilp32\libg_nano.a(lib_a-nano-vfprintf.o)
 .text.__sfputs_r
                0x000000000001c968       0x44 c:/mounriver/mounriver_studio/toolchain/risc-v embedded gcc/bin/../lib/gcc/riscv-none-embed/8.2.0/../../../../riscv-none-embed/lib/rv32imac/ilp32\libg_nano.a(lib_a-nano-vfprintf.o)
                0x000000000001c968                __sfputs_r
 .text._vfprintf_r
                0x000000000001c9ac      0x29c c:/mounriver/mounriver_studio/toolchain/risc-v embedded gcc/bin/../lib/gcc/riscv-none-embed/8.2.0/../../../../riscv-none-embed/lib/rv32imac/ilp32\libg_nano.a(lib_a-nano-vfprintf.o)
                0x000000000001c9ac                _vfprintf_r
                0x000000000001c9ac                _vfiprintf_r
 .text._printf_common
                0x000000000001cc48      0x10c c:/mounriver/mounriver_studio/toolchain/risc-v embedded gcc/bin/../lib/gcc/riscv-none-embed/8.2.0/../../../../riscv-none-embed/lib/rv32imac/ilp32\libg_nano.a(lib_a-nano-vfprintf_i.o)
                0x000000000001cc48                _printf_common
 .text._printf_i
                0x000000000001cd54      0x2aa c:/mounriver/mounriver_studio/toolchain/risc-v embedded gcc/bin/../lib/gcc/riscv-none-embed/8.2.0/../../../../riscv-none-embed/lib/rv32imac/ilp32\libg_nano.a(lib_a-nano-vfprintf_i.o)
                0x000000000001cd54                _printf_i
 .text._sbrk_r  0x000000000001cffe       0x30 c:/mounriver/mounriver_studio/toolchain/risc-v embedded gcc/bin/../lib/gcc/riscv-none-embed/8.2.0/../../../../riscv-none-embed/lib/rv32imac/ilp32\libg_nano.a(lib_a-sbrkr.o)
                0x000000000001cffe                _sbrk_r
 .text.__sread  0x000000000001d02e       0x30 c:/mounriver/mounriver_studio/toolchain/risc-v embedded gcc/bin/../lib/gcc/riscv-none-embed/8.2.0/../../../../riscv-none-embed/lib/rv32imac/ilp32\libg_nano.a(lib_a-stdio.o)
                0x000000000001d02e                __sread
 .text.__swrite
                0x000000000001d05e       0x4e c:/mounriver/mounriver_studio/toolchain/risc-v embedded gcc/bin/../lib/gcc/riscv-none-embed/8.2.0/../../../../riscv-none-embed/lib/rv32imac/ilp32\libg_nano.a(lib_a-stdio.o)
                0x000000000001d05e                __swrite
 .text.__sseek  0x000000000001d0ac       0x36 c:/mounriver/mounriver_studio/toolchain/risc-v embedded gcc/bin/../lib/gcc/riscv-none-embed/8.2.0/../../../../riscv-none-embed/lib/rv32imac/ilp32\libg_nano.a(lib_a-stdio.o)
                0x000000000001d0ac                __sseek
 .text.__sclose
                0x000000000001d0e2        0x6 c:/mounriver/mounriver_studio/toolchain/risc-v embedded gcc/bin/../lib/gcc/riscv-none-embed/8.2.0/../../../../riscv-none-embed/lib/rv32imac/ilp32\libg_nano.a(lib_a-stdio.o)
                0x000000000001d0e2                __sclose
 .text._write_r
                0x000000000001d0e8       0x36 c:/mounriver/mounriver_studio/toolchain/risc-v embedded gcc/bin/../lib/gcc/riscv-none-embed/8.2.0/../../../../riscv-none-embed/lib/rv32imac/ilp32\libg_nano.a(lib_a-writer.o)
                0x000000000001d0e8                _write_r
 .text._close_r
                0x000000000001d11e       0x30 c:/mounriver/mounriver_studio/toolchain/risc-v embedded gcc/bin/../lib/gcc/riscv-none-embed/8.2.0/../../../../riscv-none-embed/lib/rv32imac/ilp32\libg_nano.a(lib_a-closer.o)
                0x000000000001d11e                _close_r
 .text._fstat_r
                0x000000000001d14e       0x32 c:/mounriver/mounriver_studio/toolchain/risc-v embedded gcc/bin/../lib/gcc/riscv-none-embed/8.2.0/../../../../riscv-none-embed/lib/rv32imac/ilp32\libg_nano.a(lib_a-fstatr.o)
                0x000000000001d14e                _fstat_r
 .text._isatty_r
                0x000000000001d180       0x30 c:/mounriver/mounriver_studio/toolchain/risc-v embedded gcc/bin/../lib/gcc/riscv-none-embed/8.2.0/../../../../riscv-none-embed/lib/rv32imac/ilp32\libg_nano.a(lib_a-isattyr.o)
                0x000000000001d180                _isatty_r
 .text._lseek_r
                0x000000000001d1b0       0x34 c:/mounriver/mounriver_studio/toolchain/risc-v embedded gcc/bin/../lib/gcc/riscv-none-embed/8.2.0/../../../../riscv-none-embed/lib/rv32imac/ilp32\libg_nano.a(lib_a-lseekr.o)
                0x000000000001d1b0                _lseek_r
 .text.memchr   0x000000000001d1e4       0x1a c:/mounriver/mounriver_studio/toolchain/risc-v embedded gcc/bin/../lib/gcc/riscv-none-embed/8.2.0/../../../../riscv-none-embed/lib/rv32imac/ilp32\libg_nano.a(lib_a-memchr.o)
                0x000000000001d1e4                memchr
 .text.memmove  0x000000000001d1fe       0x4a c:/mounriver/mounriver_studio/toolchain/risc-v embedded gcc/bin/../lib/gcc/riscv-none-embed/8.2.0/../../../../riscv-none-embed/lib/rv32imac/ilp32\libg_nano.a(lib_a-memmove.o)
                0x000000000001d1fe                memmove
 .text.__malloc_lock
                0x000000000001d248        0x2 c:/mounriver/mounriver_studio/toolchain/risc-v embedded gcc/bin/../lib/gcc/riscv-none-embed/8.2.0/../../../../riscv-none-embed/lib/rv32imac/ilp32\libg_nano.a(lib_a-mlock.o)
                0x000000000001d248                __malloc_lock
 .text.__malloc_unlock
                0x000000000001d24a        0x2 c:/mounriver/mounriver_studio/toolchain/risc-v embedded gcc/bin/../lib/gcc/riscv-none-embed/8.2.0/../../../../riscv-none-embed/lib/rv32imac/ilp32\libg_nano.a(lib_a-mlock.o)
                0x000000000001d24a                __malloc_unlock
 .text._realloc_r
                0x000000000001d24c       0x58 c:/mounriver/mounriver_studio/toolchain/risc-v embedded gcc/bin/../lib/gcc/riscv-none-embed/8.2.0/../../../../riscv-none-embed/lib/rv32imac/ilp32\libg_nano.a(lib_a-nano-reallocr.o)
                0x000000000001d24c                _realloc_r
 .text._read_r  0x000000000001d2a4       0x34 c:/mounriver/mounriver_studio/toolchain/risc-v embedded gcc/bin/../lib/gcc/riscv-none-embed/8.2.0/../../../../riscv-none-embed/lib/rv32imac/ilp32\libg_nano.a(lib_a-readr.o)
                0x000000000001d2a4                _read_r
 .text._malloc_usable_size_r
                0x000000000001d2d8       0x14 c:/mounriver/mounriver_studio/toolchain/risc-v embedded gcc/bin/../lib/gcc/riscv-none-embed/8.2.0/../../../../riscv-none-embed/lib/rv32imac/ilp32\libg_nano.a(lib_a-nano-msizer.o)
                0x000000000001d2d8                _malloc_usable_size_r
 .text._close   0x000000000001d2ec       0x10 c:/mounriver/mounriver_studio/toolchain/risc-v embedded gcc/bin/../lib/gcc/riscv-none-embed/8.2.0/../../../../riscv-none-embed/lib/rv32imac/ilp32\libnosys.a(close.o)
                0x000000000001d2ec                _close
 .text._fstat   0x000000000001d2fc       0x10 c:/mounriver/mounriver_studio/toolchain/risc-v embedded gcc/bin/../lib/gcc/riscv-none-embed/8.2.0/../../../../riscv-none-embed/lib/rv32imac/ilp32\libnosys.a(fstat.o)
                0x000000000001d2fc                _fstat
 .text._isatty  0x000000000001d30c       0x10 c:/mounriver/mounriver_studio/toolchain/risc-v embedded gcc/bin/../lib/gcc/riscv-none-embed/8.2.0/../../../../riscv-none-embed/lib/rv32imac/ilp32\libnosys.a(isatty.o)
                0x000000000001d30c                _isatty
 .text._lseek   0x000000000001d31c       0x10 c:/mounriver/mounriver_studio/toolchain/risc-v embedded gcc/bin/../lib/gcc/riscv-none-embed/8.2.0/../../../../riscv-none-embed/lib/rv32imac/ilp32\libnosys.a(lseek.o)
                0x000000000001d31c                _lseek
 .text._read    0x000000000001d32c       0x10 c:/mounriver/mounriver_studio/toolchain/risc-v embedded gcc/bin/../lib/gcc/riscv-none-embed/8.2.0/../../../../riscv-none-embed/lib/rv32imac/ilp32\libnosys.a(read.o)
                0x000000000001d32c                _read
 .text._sbrk    0x000000000001d33c       0x24 c:/mounriver/mounriver_studio/toolchain/risc-v embedded gcc/bin/../lib/gcc/riscv-none-embed/8.2.0/../../../../riscv-none-embed/lib/rv32imac/ilp32\libnosys.a(sbrk.o)
                0x000000000001d33c                _sbrk
 *(.rodata)
 *(.rodata*)
 .rodata.Calibration_LSI_FLASH.cst4
                0x000000000001d360        0x4 ./StdPeriphDriver/CH57x_clk.o
 *fill*         0x000000000001d364        0x4 
 .rodata.Calibration_LSI_FLASH.cst8
                0x000000000001d368       0x10 ./StdPeriphDriver/CH57x_clk.o
 .rodata.GPIOA_ModeCfg
                0x000000000001d378       0x14 ./StdPeriphDriver/CH57x_gpio.o
 .rodata.GPIOB_ModeCfg
                0x000000000001d38c       0x14 ./StdPeriphDriver/CH57x_gpio.o
 .rodata.Debug_AddService.str1.4
                0x000000000001d3a0       0x2e ./Profile/debug_service.o
 *fill*         0x000000000001d3ce        0x2 
 .rodata.Debug_HandleConnStatusCB.str1.4
                0x000000000001d3d0       0x1b ./Profile/debug_service.o
 *fill*         0x000000000001d3eb        0x1 
 .rodata.devInfo11073Cert
                0x000000000001d3ec        0xe ./Profile/devinfoservice.o
 *fill*         0x000000000001d3fa        0x2 
 .rodata.devInfoFirmwareRev
                0x000000000001d3fc       0x12 ./Profile/devinfoservice.o
 *fill*         0x000000000001d40e        0x2 
 .rodata.devInfoHardwareRev
                0x000000000001d410       0x12 ./Profile/devinfoservice.o
 *fill*         0x000000000001d422        0x2 
 .rodata.devInfoMfrName
                0x000000000001d424       0x12 ./Profile/devinfoservice.o
 *fill*         0x000000000001d436        0x2 
 .rodata.devInfoModelNumber
                0x000000000001d438        0xd ./Profile/devinfoservice.o
 *fill*         0x000000000001d445        0x3 
 .rodata.devInfoSerialNumber
                0x000000000001d448        0xe ./Profile/devinfoservice.o
 *fill*         0x000000000001d456        0x2 
 .rodata.devInfoSoftwareRev
                0x000000000001d458       0x12 ./Profile/devinfoservice.o
 *fill*         0x000000000001d46a        0x2 
 .rodata.CH57X_BLEInit.str1.4
                0x000000000001d46c       0x45 ./HAL/MCU.o
 *fill*         0x000000000001d4b1        0x3 
 .rodata.HAL_ProcessEvent.str1.4
                0x000000000001d4b4        0x3 ./HAL/MCU.o
 *fill*         0x000000000001d4b7        0x1 
 .rodata.Set_PD_Vol
                0x000000000001d4b8       0x40 ./APP/Fan.o
 .rodata.Get_VBUS_Vol.cst4
                0x000000000001d4f8        0x4 ./APP/Fan.o
 .rodata.Init_Config.str1.4
                0x000000000001d4fc       0x36 ./APP/User_config.o
 *fill*         0x000000000001d532        0x2 
 .rodata.peripheralStateNotificationCB
                0x000000000001d534       0x18 ./APP/peripheral.o
 .rodata.Debug_Read_Callback.str1.4
                0x000000000001d54c       0x14 ./APP/peripheral.o
 .rodata.Debug_Write_Callback.str1.4
                0x000000000001d560       0x1c ./APP/peripheral.o
 .rodata.Peripheral_LinkTerminated.str1.4
                0x000000000001d57c        0x6 ./APP/peripheral.o
 *fill*         0x000000000001d582        0x2 
 .rodata.Peripheral_ProcessEvent.str1.4
                0x000000000001d584       0x48 ./APP/peripheral.o
 .rodata.peripheralParamUpdateCB.str1.4
                0x000000000001d5cc       0x15 ./APP/peripheral.o
 *fill*         0x000000000001d5e1        0x3 
 .rodata.peripheralRssiCB.str1.4
                0x000000000001d5e4       0x17 ./APP/peripheral.o
 *fill*         0x000000000001d5fb        0x1 
 .rodata.peripheralStateNotificationCB.str1.4
                0x000000000001d5fc       0xb7 ./APP/peripheral.o
 *fill*         0x000000000001d6b3        0x1 
 .rodata.btBaseUUID
                0x000000000001d6b4       0x10 E:\PD_Fan\PD_Fan\Software\EXAM\BLE\LIB\libCH57xBLE.a(att.o)
                0x000000000001d6b4                btBaseUUID
 .rodata.GGS_SetParameter
                0x000000000001d6c4       0x28 E:\PD_Fan\PD_Fan\Software\EXAM\BLE\LIB\libCH57xBLE.a(gapgattserver.o)
 .rodata.GAP_DeviceInit
                0x000000000001d6ec       0x30 E:\PD_Fan\PD_Fan\Software\EXAM\BLE\LIB\libCH57xBLE.a(gapgattserver.o)
 .rodata.serverReqTbl
                0x000000000001d71c       0x60 E:\PD_Fan\PD_Fan\Software\EXAM\BLE\LIB\libCH57xBLE.a(gattservapp.o)
                0x000000000001d71c                serverReqTbl
 .rodata.smpInitiatorProcessIncoming
                0x000000000001d77c       0x28 E:\PD_Fan\PD_Fan\Software\EXAM\BLE\LIB\libCH57xBLE.a(sm.o)
 .rodata.smProcessDataMsg
                0x000000000001d7a4       0x2c E:\PD_Fan\PD_Fan\Software\EXAM\BLE\LIB\libCH57xBLE.a(sm.o)
 .rodata.smpResponderProcessIncoming
                0x000000000001d7d0       0x28 E:\PD_Fan\PD_Fan\Software\EXAM\BLE\LIB\libCH57xBLE.a(sm.o)
 .rodata.IOCapMatrix
                0x000000000001d7f8       0x19 E:\PD_Fan\PD_Fan\Software\EXAM\BLE\LIB\libCH57xBLE.a(sm.o)
                0x000000000001d7f8                IOCapMatrix
 *fill*         0x000000000001d811        0x3 
 .rodata.const_Rb
                0x000000000001d814       0x10 E:\PD_Fan\PD_Fan\Software\EXAM\BLE\LIB\libCH57xBLE.a(sm.o)
                0x000000000001d814                const_Rb
 .rodata.SCA    0x000000000001d824       0x10 E:\PD_Fan\PD_Fan\Software\EXAM\BLE\LIB\libCH57xBLE.a(ll_slave.o)
                0x000000000001d824                SCA
 .rodata.VER_LIB
                0x000000000001d834       0x14 E:\PD_Fan\PD_Fan\Software\EXAM\BLE\LIB\libCH57xBLE.a(ip.o)
                0x000000000001d834                VER_LIB
 .rodata.GAPBondMgr_GetParameter
                0x000000000001d848       0x80 E:\PD_Fan\PD_Fan\Software\EXAM\BLE\LIB\libCH57xBLE.a(gapbondmgr.o)
 .rodata.GAPBondMgr_SetParameter
                0x000000000001d8c8       0x84 E:\PD_Fan\PD_Fan\Software\EXAM\BLE\LIB\libCH57xBLE.a(gapbondmgr.o)
 .rodata.GAPBondMgr_ProcessGAPMsg
                0x000000000001d94c       0x28 E:\PD_Fan\PD_Fan\Software\EXAM\BLE\LIB\libCH57xBLE.a(gapbondmgr.o)
 .rodata.gapRole_PeripheralProcessTMOSMsg
                0x000000000001d974       0x20 E:\PD_Fan\PD_Fan\Software\EXAM\BLE\LIB\libCH57xBLE.a(peripheral.o)
 .rodata.GAPRole_GetParameter
                0x000000000001d994       0x4c E:\PD_Fan\PD_Fan\Software\EXAM\BLE\LIB\libCH57xBLE.a(role.o)
 .rodata.GAPRole_SetParameter
                0x000000000001d9e0       0x48 E:\PD_Fan\PD_Fan\Software\EXAM\BLE\LIB\libCH57xBLE.a(role.o)
 .rodata.PrimeNumber
                0x000000000001da28       0x17 E:\PD_Fan\PD_Fan\Software\EXAM\BLE\LIB\libCH57xBLE.a(ll.o)
                0x000000000001da28                PrimeNumber
 *fill*         0x000000000001da3f        0x1 
 .rodata.__muldf3
                0x000000000001da40       0x40 c:/mounriver/mounriver_studio/toolchain/risc-v embedded gcc/bin/../lib/gcc/riscv-none-embed/8.2.0/rv32imac/ilp32\libgcc.a(muldf3.o)
 .rodata.__mulsf3
                0x000000000001da80       0x40 c:/mounriver/mounriver_studio/toolchain/risc-v embedded gcc/bin/../lib/gcc/riscv-none-embed/8.2.0/rv32imac/ilp32\libgcc.a(mulsf3.o)
 .rodata.__clz_tab
                0x000000000001dac0      0x100 c:/mounriver/mounriver_studio/toolchain/risc-v embedded gcc/bin/../lib/gcc/riscv-none-embed/8.2.0/rv32imac/ilp32\libgcc.a(_clz.o)
                0x000000000001dac0                __clz_tab
 .rodata.__sf_fake_stderr
                0x000000000001dbc0       0x20 c:/mounriver/mounriver_studio/toolchain/risc-v embedded gcc/bin/../lib/gcc/riscv-none-embed/8.2.0/../../../../riscv-none-embed/lib/rv32imac/ilp32\libg_nano.a(lib_a-findfp.o)
                0x000000000001dbc0                __sf_fake_stderr
 .rodata.__sf_fake_stdin
                0x000000000001dbe0       0x20 c:/mounriver/mounriver_studio/toolchain/risc-v embedded gcc/bin/../lib/gcc/riscv-none-embed/8.2.0/../../../../riscv-none-embed/lib/rv32imac/ilp32\libg_nano.a(lib_a-findfp.o)
                0x000000000001dbe0                __sf_fake_stdin
 .rodata.__sf_fake_stdout
                0x000000000001dc00       0x20 c:/mounriver/mounriver_studio/toolchain/risc-v embedded gcc/bin/../lib/gcc/riscv-none-embed/8.2.0/../../../../riscv-none-embed/lib/rv32imac/ilp32\libg_nano.a(lib_a-findfp.o)
                0x000000000001dc00                __sf_fake_stdout
 .rodata._svfprintf_r.str1.4
                0x000000000001dc20       0x13 c:/mounriver/mounriver_studio/toolchain/risc-v embedded gcc/bin/../lib/gcc/riscv-none-embed/8.2.0/../../../../riscv-none-embed/lib/rv32imac/ilp32\libg_nano.a(lib_a-nano-svfprintf.o)
 .rodata._vfprintf_r.str1.4
                0x000000000001dc33       0x13 c:/mounriver/mounriver_studio/toolchain/risc-v embedded gcc/bin/../lib/gcc/riscv-none-embed/8.2.0/../../../../riscv-none-embed/lib/rv32imac/ilp32\libg_nano.a(lib_a-nano-vfprintf.o)
 *fill*         0x000000000001dc33        0x1 
 .rodata._printf_i.str1.4
                0x000000000001dc34       0x28 c:/mounriver/mounriver_studio/toolchain/risc-v embedded gcc/bin/../lib/gcc/riscv-none-embed/8.2.0/../../../../riscv-none-embed/lib/rv32imac/ilp32\libg_nano.a(lib_a-nano-vfprintf_i.o)
                                         0x25 (size before relaxing)
 *(.sdata2.*)
 .sdata2.Debug_Service
                0x000000000001dc5c        0x8 ./Profile/debug_service.o
 .sdata2.Debug_ServiceUUID
                0x000000000001dc64        0x2 ./Profile/debug_service.o
                0x000000000001dc64                Debug_ServiceUUID
 *fill*         0x000000000001dc66        0x2 
 .sdata2.Debug_UUID1
                0x000000000001dc68        0x2 ./Profile/debug_service.o
                0x000000000001dc68                Debug_UUID1
 *fill*         0x000000000001dc6a        0x2 
 .sdata2.devInfo11073CertUUID
                0x000000000001dc6c        0x2 ./Profile/devinfoservice.o
                0x000000000001dc6c                devInfo11073CertUUID
 *fill*         0x000000000001dc6e        0x2 
 .sdata2.devInfoFirmwareRevUUID
                0x000000000001dc70        0x2 ./Profile/devinfoservice.o
                0x000000000001dc70                devInfoFirmwareRevUUID
 *fill*         0x000000000001dc72        0x2 
 .sdata2.devInfoHardwareRevUUID
                0x000000000001dc74        0x2 ./Profile/devinfoservice.o
                0x000000000001dc74                devInfoHardwareRevUUID
 *fill*         0x000000000001dc76        0x2 
 .sdata2.devInfoMfrNameUUID
                0x000000000001dc78        0x2 ./Profile/devinfoservice.o
                0x000000000001dc78                devInfoMfrNameUUID
 *fill*         0x000000000001dc7a        0x2 
 .sdata2.devInfoModelNumberUUID
                0x000000000001dc7c        0x2 ./Profile/devinfoservice.o
                0x000000000001dc7c                devInfoModelNumberUUID
 *fill*         0x000000000001dc7e        0x2 
 .sdata2.devInfoPnpIdUUID
                0x000000000001dc80        0x2 ./Profile/devinfoservice.o
                0x000000000001dc80                devInfoPnpIdUUID
 *fill*         0x000000000001dc82        0x2 
 .sdata2.devInfoSerialNumberUUID
                0x000000000001dc84        0x2 ./Profile/devinfoservice.o
                0x000000000001dc84                devInfoSerialNumberUUID
 *fill*         0x000000000001dc86        0x2 
 .sdata2.devInfoServUUID
                0x000000000001dc88        0x2 ./Profile/devinfoservice.o
                0x000000000001dc88                devInfoServUUID
 *fill*         0x000000000001dc8a        0x2 
 .sdata2.devInfoService
                0x000000000001dc8c        0x8 ./Profile/devinfoservice.o
 .sdata2.devInfoSoftwareRevUUID
                0x000000000001dc94        0x2 ./Profile/devinfoservice.o
                0x000000000001dc94                devInfoSoftwareRevUUID
 *fill*         0x000000000001dc96        0x2 
 .sdata2.devInfoSystemIdUUID
                0x000000000001dc98        0x2 ./Profile/devinfoservice.o
                0x000000000001dc98                devInfoSystemIdUUID
 *fill*         0x000000000001dc9a        0x2 
 .sdata2.gapService
                0x000000000001dc9c        0x8 E:\PD_Fan\PD_Fan\Software\EXAM\BLE\LIB\libCH57xBLE.a(gapgattserver.o)
 .sdata2.appearanceUUID
                0x000000000001dca4        0x2 E:\PD_Fan\PD_Fan\Software\EXAM\BLE\LIB\libCH57xBLE.a(gatt_uuid.o)
                0x000000000001dca4                appearanceUUID
 *fill*         0x000000000001dca6        0x2 
 .sdata2.centAddrResUUID
                0x000000000001dca8        0x2 E:\PD_Fan\PD_Fan\Software\EXAM\BLE\LIB\libCH57xBLE.a(gatt_uuid.o)
                0x000000000001dca8                centAddrResUUID
 *fill*         0x000000000001dcaa        0x2 
 .sdata2.characterUUID
                0x000000000001dcac        0x2 E:\PD_Fan\PD_Fan\Software\EXAM\BLE\LIB\libCH57xBLE.a(gatt_uuid.o)
                0x000000000001dcac                characterUUID
 *fill*         0x000000000001dcae        0x2 
 .sdata2.clientCharCfgUUID
                0x000000000001dcb0        0x2 E:\PD_Fan\PD_Fan\Software\EXAM\BLE\LIB\libCH57xBLE.a(gatt_uuid.o)
                0x000000000001dcb0                clientCharCfgUUID
 *fill*         0x000000000001dcb2        0x2 
 .sdata2.deviceNameUUID
                0x000000000001dcb4        0x2 E:\PD_Fan\PD_Fan\Software\EXAM\BLE\LIB\libCH57xBLE.a(gatt_uuid.o)
                0x000000000001dcb4                deviceNameUUID
 *fill*         0x000000000001dcb6        0x2 
 .sdata2.gapServiceUUID
                0x000000000001dcb8        0x2 E:\PD_Fan\PD_Fan\Software\EXAM\BLE\LIB\libCH57xBLE.a(gatt_uuid.o)
                0x000000000001dcb8                gapServiceUUID
 *fill*         0x000000000001dcba        0x2 
 .sdata2.gattServiceUUID
                0x000000000001dcbc        0x2 E:\PD_Fan\PD_Fan\Software\EXAM\BLE\LIB\libCH57xBLE.a(gatt_uuid.o)
                0x000000000001dcbc                gattServiceUUID
 *fill*         0x000000000001dcbe        0x2 
 .sdata2.periConnParamUUID
                0x000000000001dcc0        0x2 E:\PD_Fan\PD_Fan\Software\EXAM\BLE\LIB\libCH57xBLE.a(gatt_uuid.o)
                0x000000000001dcc0                periConnParamUUID
 *fill*         0x000000000001dcc2        0x2 
 .sdata2.primaryServiceUUID
                0x000000000001dcc4        0x2 E:\PD_Fan\PD_Fan\Software\EXAM\BLE\LIB\libCH57xBLE.a(gatt_uuid.o)
                0x000000000001dcc4                primaryServiceUUID
 *fill*         0x000000000001dcc6        0x2 
 .sdata2.secondaryServiceUUID
                0x000000000001dcc8        0x2 E:\PD_Fan\PD_Fan\Software\EXAM\BLE\LIB\libCH57xBLE.a(gatt_uuid.o)
                0x000000000001dcc8                secondaryServiceUUID
 *fill*         0x000000000001dcca        0x2 
 .sdata2.serviceChangedUUID
                0x000000000001dccc        0x2 E:\PD_Fan\PD_Fan\Software\EXAM\BLE\LIB\libCH57xBLE.a(gatt_uuid.o)
                0x000000000001dccc                serviceChangedUUID
 *fill*         0x000000000001dcce        0x2 
 .sdata2._global_impure_ptr
                0x000000000001dcd0        0x4 c:/mounriver/mounriver_studio/toolchain/risc-v embedded gcc/bin/../lib/gcc/riscv-none-embed/8.2.0/../../../../riscv-none-embed/lib/rv32imac/ilp32\libg_nano.a(lib_a-impure.o)
                0x000000000001dcd0                _global_impure_ptr
 *(.glue_7)
 *(.glue_7t)
 *(.gnu.linkonce.t.*)
                0x000000000001dcd4                . = ALIGN (0x4)

.rela.dyn       0x000000000001dcd4        0x0
 .rela.init     0x000000000001dcd4        0x0 ./StdPeriphDriver/CH57x_adc.o
 .rela.vector   0x000000000001dcd4        0x0 ./StdPeriphDriver/CH57x_adc.o
 .rela.handle_reset
                0x000000000001dcd4        0x0 ./StdPeriphDriver/CH57x_adc.o
 .rela.text._svfprintf_r
                0x000000000001dcd4        0x0 ./StdPeriphDriver/CH57x_adc.o
 .rela.text._vfprintf_r
                0x000000000001dcd4        0x0 ./StdPeriphDriver/CH57x_adc.o
 .rela.text._sbrk_r
                0x000000000001dcd4        0x0 ./StdPeriphDriver/CH57x_adc.o
 .rela.text._write_r
                0x000000000001dcd4        0x0 ./StdPeriphDriver/CH57x_adc.o
 .rela.text._close_r
                0x000000000001dcd4        0x0 ./StdPeriphDriver/CH57x_adc.o
 .rela.text._fstat_r
                0x000000000001dcd4        0x0 ./StdPeriphDriver/CH57x_adc.o
 .rela.text._isatty_r
                0x000000000001dcd4        0x0 ./StdPeriphDriver/CH57x_adc.o
 .rela.text._lseek_r
                0x000000000001dcd4        0x0 ./StdPeriphDriver/CH57x_adc.o
 .rela.text._read_r
                0x000000000001dcd4        0x0 ./StdPeriphDriver/CH57x_adc.o
 .rela.text._close
                0x000000000001dcd4        0x0 ./StdPeriphDriver/CH57x_adc.o
 .rela.text._fstat
                0x000000000001dcd4        0x0 ./StdPeriphDriver/CH57x_adc.o
 .rela.text._isatty
                0x000000000001dcd4        0x0 ./StdPeriphDriver/CH57x_adc.o
 .rela.text._lseek
                0x000000000001dcd4        0x0 ./StdPeriphDriver/CH57x_adc.o
 .rela.text._read
                0x000000000001dcd4        0x0 ./StdPeriphDriver/CH57x_adc.o
 .rela.text._sbrk
                0x000000000001dcd4        0x0 ./StdPeriphDriver/CH57x_adc.o

.fini           0x000000000001dcd4        0x0
 *(SORT_NONE(.fini))
                0x000000000001dcd4                . = ALIGN (0x4)
                [!provide]                        PROVIDE (_etext = .)
                [!provide]                        PROVIDE (_eitcm = .)

.preinit_array  0x000000000001dcd4        0x0
                [!provide]                        PROVIDE (__preinit_array_start = .)
 *(.preinit_array)
                [!provide]                        PROVIDE (__preinit_array_end = .)

.init_array     0x000000000001dcd4        0x0
                [!provide]                        PROVIDE (__init_array_start = .)
 *(SORT_BY_INIT_PRIORITY(.init_array.*) SORT_BY_INIT_PRIORITY(.ctors.*))
 *(.init_array EXCLUDE_FILE(*crtend?.o *crtend.o *crtbegin?.o *crtbegin.o) .ctors)
                [!provide]                        PROVIDE (__init_array_end = .)

.fini_array     0x000000000001dcd4        0x0
                [!provide]                        PROVIDE (__fini_array_start = .)
 *(SORT_BY_INIT_PRIORITY(.fini_array.*) SORT_BY_INIT_PRIORITY(.dtors.*))
 *(.fini_array EXCLUDE_FILE(*crtend?.o *crtend.o *crtbegin?.o *crtbegin.o) .dtors)
                [!provide]                        PROVIDE (__fini_array_end = .)

.ctors
 *crtbegin.o(.ctors)
 *crtbegin?.o(.ctors)
 *(EXCLUDE_FILE(*crtend?.o *crtend.o) .ctors)
 *(SORT_BY_NAME(.ctors.*))
 *(.ctors)

.dtors
 *crtbegin.o(.dtors)
 *crtbegin?.o(.dtors)
 *(EXCLUDE_FILE(*crtend?.o *crtend.o) .dtors)
 *(SORT_BY_NAME(.dtors.*))
 *(.dtors)

.dalign         0x00000000200049bc        0x0 load address 0x000000000001dcd4
                0x00000000200049bc                . = (ORIGIN (RAM) + MAX (0x800, SIZEOF (.highcode)))

.dlalign        0x000000000001dcd4        0x0
                0x000000000001dcd4                . = ALIGN (0x4)
                0x000000000001dcd4                PROVIDE (_data_lma = .)

.data           0x00000000200049bc      0x39c load address 0x000000000001dcd4
                0x00000000200049bc                . = ALIGN (0x4)
                0x00000000200049bc                PROVIDE (_data_vma = .)
 *(.gnu.linkonce.r.*)
 *(.data .data.*)
 .data.Debug_ProfileAttrTbl
                0x00000000200049bc       0x40 ./Profile/debug_service.o
 .data.Debug_ProfileCBs
                0x00000000200049fc        0xc ./Profile/debug_service.o
                0x00000000200049fc                Debug_ProfileCBs
 .data.devInfoAttrTbl
                0x0000000020004a08      0x130 ./Profile/devinfoservice.o
 .data.devInfoCBs
                0x0000000020004b38        0xc ./Profile/devinfoservice.o
                0x0000000020004b38                devInfoCBs
 .data.Peripheral_PeripheralCBs
                0x0000000020004b44        0xc ./APP/peripheral.o
 .data.attDeviceName
                0x0000000020004b50       0x15 ./APP/peripheral.o
 *fill*         0x0000000020004b65        0x3 
 .data.scanRspData
                0x0000000020004b68       0x11 ./APP/peripheral.o
 *fill*         0x0000000020004b79        0x3 
 .data.gapAttrTbl
                0x0000000020004b7c       0x90 E:\PD_Fan\PD_Fan\Software\EXAM\BLE\LIB\libCH57xBLE.a(gapgattserver.o)
 .data.gapServiceCBs
                0x0000000020004c0c        0xc E:\PD_Fan\PD_Fan\Software\EXAM\BLE\LIB\libCH57xBLE.a(gapgattserver.o)
                0x0000000020004c0c                gapServiceCBs
 .data.gattAttrTbl
                0x0000000020004c18       0x40 E:\PD_Fan\PD_Fan\Software\EXAM\BLE\LIB\libCH57xBLE.a(gattservapp.o)
 .data.gattServiceCBs
                0x0000000020004c58        0xc E:\PD_Fan\PD_Fan\Software\EXAM\BLE\LIB\libCH57xBLE.a(gattservapp.o)
 .data.smInitiatorCBs
                0x0000000020004c64        0xc E:\PD_Fan\PD_Fan\Software\EXAM\BLE\LIB\libCH57xBLE.a(sm.o)
                0x0000000020004c64                smInitiatorCBs
 .data.smResponderCBs
                0x0000000020004c70        0xc E:\PD_Fan\PD_Fan\Software\EXAM\BLE\LIB\libCH57xBLE.a(sm.o)
                0x0000000020004c70                smResponderCBs
 .data.impure_data
                0x0000000020004c7c       0x60 c:/mounriver/mounriver_studio/toolchain/risc-v embedded gcc/bin/../lib/gcc/riscv-none-embed/8.2.0/../../../../riscv-none-embed/lib/rv32imac/ilp32\libg_nano.a(lib_a-impure.o)
 *(.gnu.linkonce.d.*)
                0x0000000020004ce0                . = ALIGN (0x8)
 *fill*         0x0000000020004cdc        0x4 
                0x00000000200054e0                PROVIDE (__global_pointer$ = (. + 0x800))
 *(.sdata .sdata.*)
 .sdata.Debug_Props1
                0x0000000020004ce0        0x1 ./Profile/debug_service.o
 .sdata.devInfo11073CertProps
                0x0000000020004ce1        0x1 ./Profile/devinfoservice.o
 .sdata.devInfoFirmwareRevProps
                0x0000000020004ce2        0x1 ./Profile/devinfoservice.o
 .sdata.devInfoHardwareRevProps
                0x0000000020004ce3        0x1 ./Profile/devinfoservice.o
 .sdata.devInfoMfrNameProps
                0x0000000020004ce4        0x1 ./Profile/devinfoservice.o
 .sdata.devInfoModelNumberProps
                0x0000000020004ce5        0x1 ./Profile/devinfoservice.o
 *fill*         0x0000000020004ce6        0x2 
 .sdata.devInfoPnpId
                0x0000000020004ce8        0x7 ./Profile/devinfoservice.o
 .sdata.devInfoPnpIdProps
                0x0000000020004cef        0x1 ./Profile/devinfoservice.o
 .sdata.devInfoSerialNumberProps
                0x0000000020004cf0        0x1 ./Profile/devinfoservice.o
 .sdata.devInfoSoftwareRevProps
                0x0000000020004cf1        0x1 ./Profile/devinfoservice.o
 .sdata.devInfoSystemIdProps
                0x0000000020004cf2        0x1 ./Profile/devinfoservice.o
 .sdata.pd_target_vol
                0x0000000020004cf3        0x1 ./APP/Fan.o
 .sdata.SYS_Config
                0x0000000020004cf4        0x8 ./APP/User_config.o
                0x0000000020004cf4                SYS_Config
 .sdata.Debug_CBs
                0x0000000020004cfc        0x8 ./APP/peripheral.o
 .sdata.Peripheral_TaskID
                0x0000000020004d04        0x1 ./APP/peripheral.o
 *fill*         0x0000000020004d05        0x3 
 .sdata.advertData
                0x0000000020004d08        0x7 ./APP/peripheral.o
 *fill*         0x0000000020004d0f        0x1 
 .sdata.holdrand.5453
                0x0000000020004d10        0x4 E:\PD_Fan\PD_Fan\Software\EXAM\BLE\LIB\libCH57xBLE.a(tmos.o)
 .sdata.gapAdvAppTaskID
                0x0000000020004d14        0x1 E:\PD_Fan\PD_Fan\Software\EXAM\BLE\LIB\libCH57xBLE.a(gap_peripheral.o)
 .sdata.appearanceCharProps
                0x0000000020004d15        0x1 E:\PD_Fan\PD_Fan\Software\EXAM\BLE\LIB\libCH57xBLE.a(gapgattserver.o)
 .sdata.centAddrRes
                0x0000000020004d16        0x1 E:\PD_Fan\PD_Fan\Software\EXAM\BLE\LIB\libCH57xBLE.a(gapgattserver.o)
 .sdata.centAddrResCharProps
                0x0000000020004d17        0x1 E:\PD_Fan\PD_Fan\Software\EXAM\BLE\LIB\libCH57xBLE.a(gapgattserver.o)
 .sdata.deviceNameCharProps
                0x0000000020004d18        0x1 E:\PD_Fan\PD_Fan\Software\EXAM\BLE\LIB\libCH57xBLE.a(gapgattserver.o)
 .sdata.periConnParamCharProps
                0x0000000020004d19        0x1 E:\PD_Fan\PD_Fan\Software\EXAM\BLE\LIB\libCH57xBLE.a(gapgattserver.o)
 *fill*         0x0000000020004d1a        0x2 
 .sdata.periConnParameters
                0x0000000020004d1c        0x8 E:\PD_Fan\PD_Fan\Software\EXAM\BLE\LIB\libCH57xBLE.a(gapgattserver.o)
 .sdata.gattCentAppTaskID
                0x0000000020004d24        0x1 E:\PD_Fan\PD_Fan\Software\EXAM\BLE\LIB\libCH57xBLE.a(gatt.o)
 .sdata.gattPeriAppTaskID
                0x0000000020004d25        0x1 E:\PD_Fan\PD_Fan\Software\EXAM\BLE\LIB\libCH57xBLE.a(gatt.o)
 .sdata.GATTServApp_TaskID
                0x0000000020004d26        0x1 E:\PD_Fan\PD_Fan\Software\EXAM\BLE\LIB\libCH57xBLE.a(gattservapp.o)
 .sdata.appTaskID
                0x0000000020004d27        0x1 E:\PD_Fan\PD_Fan\Software\EXAM\BLE\LIB\libCH57xBLE.a(gattservapp.o)
 .sdata.gattService
                0x0000000020004d28        0x8 E:\PD_Fan\PD_Fan\Software\EXAM\BLE\LIB\libCH57xBLE.a(gattservapp.o)
 .sdata.nextHandle
                0x0000000020004d30        0x2 E:\PD_Fan\PD_Fan\Software\EXAM\BLE\LIB\libCH57xBLE.a(gattservapp.o)
 .sdata.reqTaskId
                0x0000000020004d32        0x1 E:\PD_Fan\PD_Fan\Software\EXAM\BLE\LIB\libCH57xBLE.a(gattservapp.o)
 .sdata.serviceChangedCharProps
                0x0000000020004d33        0x1 E:\PD_Fan\PD_Fan\Software\EXAM\BLE\LIB\libCH57xBLE.a(gattservapp.o)
 .sdata.gapBondCB
                0x0000000020004d34        0x8 E:\PD_Fan\PD_Fan\Software\EXAM\BLE\LIB\libCH57xBLE.a(gapbondmgr.o)
 .sdata.gapBond_Auto
                0x0000000020004d3c        0x1 E:\PD_Fan\PD_Fan\Software\EXAM\BLE\LIB\libCH57xBLE.a(gapbondmgr.o)
                0x0000000020004d3c                gapBond_Auto
 .sdata.gapBond_AutoFailReason
                0x0000000020004d3d        0x1 E:\PD_Fan\PD_Fan\Software\EXAM\BLE\LIB\libCH57xBLE.a(gapbondmgr.o)
 .sdata.gapBond_BondFailOption
                0x0000000020004d3e        0x1 E:\PD_Fan\PD_Fan\Software\EXAM\BLE\LIB\libCH57xBLE.a(gapbondmgr.o)
 .sdata.gapBond_Cent_PairingMode
                0x0000000020004d3f        0x1 E:\PD_Fan\PD_Fan\Software\EXAM\BLE\LIB\libCH57xBLE.a(gapbondmgr.o)
 .sdata.gapBond_Erase
                0x0000000020004d40        0x1 E:\PD_Fan\PD_Fan\Software\EXAM\BLE\LIB\libCH57xBLE.a(gapbondmgr.o)
                0x0000000020004d40                gapBond_Erase
 .sdata.gapBond_KeySize
                0x0000000020004d41        0x1 E:\PD_Fan\PD_Fan\Software\EXAM\BLE\LIB\libCH57xBLE.a(gapbondmgr.o)
 .sdata.gapBond_Peri_PairingMode
                0x0000000020004d42        0x1 E:\PD_Fan\PD_Fan\Software\EXAM\BLE\LIB\libCH57xBLE.a(gapbondmgr.o)
 .sdata.gapBond_Valid
                0x0000000020004d43        0x1 E:\PD_Fan\PD_Fan\Software\EXAM\BLE\LIB\libCH57xBLE.a(gapbondmgr.o)
                0x0000000020004d43                gapBond_Valid
 .sdata.gapCentralTaskID
                0x0000000020004d44        0x1 E:\PD_Fan\PD_Fan\Software\EXAM\BLE\LIB\libCH57xBLE.a(role.o)
                0x0000000020004d44                gapCentralTaskID
 .sdata.gapRole_AdvEnabled
                0x0000000020004d45        0x1 E:\PD_Fan\PD_Fan\Software\EXAM\BLE\LIB\libCH57xBLE.a(role.o)
                0x0000000020004d45                gapRole_AdvEnabled
 .sdata.gapRole_AdvertDataLen
                0x0000000020004d46        0x1 E:\PD_Fan\PD_Fan\Software\EXAM\BLE\LIB\libCH57xBLE.a(role.o)
                0x0000000020004d46                gapRole_AdvertDataLen
 *fill*         0x0000000020004d47        0x1 
 .sdata.gapRole_MaxConnInterval
                0x0000000020004d48        0x2 E:\PD_Fan\PD_Fan\Software\EXAM\BLE\LIB\libCH57xBLE.a(role.o)
                0x0000000020004d48                gapRole_MaxConnInterval
 .sdata.gapRole_MinConnInterval
                0x0000000020004d4a        0x2 E:\PD_Fan\PD_Fan\Software\EXAM\BLE\LIB\libCH57xBLE.a(role.o)
                0x0000000020004d4a                gapRole_MinConnInterval
 .sdata.gapRole_TaskID
                0x0000000020004d4c        0x1 E:\PD_Fan\PD_Fan\Software\EXAM\BLE\LIB\libCH57xBLE.a(role.o)
                0x0000000020004d4c                gapRole_TaskID
 *fill*         0x0000000020004d4d        0x3 
 .sdata._impure_ptr
                0x0000000020004d50        0x4 c:/mounriver/mounriver_studio/toolchain/risc-v embedded gcc/bin/../lib/gcc/riscv-none-embed/8.2.0/../../../../riscv-none-embed/lib/rv32imac/ilp32\libg_nano.a(lib_a-impure.o)
                0x0000000020004d50                _impure_ptr
 *(.gnu.linkonce.s.*)
                0x0000000020004d58                . = ALIGN (0x8)
 *fill*         0x0000000020004d54        0x4 
 *(.srodata.cst16)
 *(.srodata.cst8)
 *(.srodata.cst4)
 *(.srodata.cst2)
 *(.srodata .srodata.*)
                0x0000000020004d58                . = ALIGN (0x4)
                0x0000000020004d58                PROVIDE (_edata = .)

.bss            0x0000000020004d58     0x1eb4 load address 0x000000000001e070
                0x0000000020004d58                . = ALIGN (0x4)
                0x0000000020004d58                PROVIDE (_sbss = .)
 *(.sbss*)
 .sbss.Int32K_Tune_FLASH
                0x0000000020004d58        0x2 ./StdPeriphDriver/CH57x_clk.o
                0x0000000020004d58                Int32K_Tune_FLASH
 .sbss.Int32K_Tune_RAM
                0x0000000020004d5a        0x2 ./StdPeriphDriver/CH57x_clk.o
                0x0000000020004d5a                Int32K_Tune_RAM
 .sbss.Debug_AppCBs
                0x0000000020004d5c        0x4 ./Profile/debug_service.o
 .sbss.devInfoSystemId
                0x0000000020004d60        0x8 ./Profile/devinfoservice.o
 .sbss.halTaskID
                0x0000000020004d68        0x1 ./HAL/MCU.o
                0x0000000020004d68                halTaskID
 *fill*         0x0000000020004d69        0x3 
 .sbss.RTCTigFlag
                0x0000000020004d6c        0x4 ./HAL/RTC.o
                0x0000000020004d6c                RTCTigFlag
 .sbss.RPM      0x0000000020004d70        0x2 ./APP/Fan.o
 .sbss.fan_target_duty
                0x0000000020004d72        0x1 ./APP/Fan.o
 *fill*         0x0000000020004d73        0x1 
 .sbss.Broadcaster_BroadcasterCBs
                0x0000000020004d74        0x8 ./APP/peripheral.o
 .sbss.Peripheral_BondMgrCBs
                0x0000000020004d7c        0x8 ./APP/peripheral.o
 .sbss.peripheralConnList
                0x0000000020004d84        0x8 ./APP/peripheral.o
 .sbss.msg_qHead
                0x0000000020004d8c        0x4 E:\PD_Fan\PD_Fan\Software\EXAM\BLE\LIB\libCH57xBLE.a(message.o)
                0x0000000020004d8c                msg_qHead
 .sbss.EventsArr
                0x0000000020004d90        0x4 E:\PD_Fan\PD_Fan\Software\EXAM\BLE\LIB\libCH57xBLE.a(tmos.o)
                0x0000000020004d90                EventsArr
 .sbss.Tune32K_FLASH
                0x0000000020004d94        0x2 E:\PD_Fan\PD_Fan\Software\EXAM\BLE\LIB\libCH57xBLE.a(tmos.o)
                0x0000000020004d94                Tune32K_FLASH
 .sbss.Tune32K_RAM
                0x0000000020004d96        0x2 E:\PD_Fan\PD_Fan\Software\EXAM\BLE\LIB\libCH57xBLE.a(tmos.o)
                0x0000000020004d96                Tune32K_RAM
 .sbss.cbTimersHead
                0x0000000020004d98        0x4 E:\PD_Fan\PD_Fan\Software\EXAM\BLE\LIB\libCH57xBLE.a(tmos.o)
                0x0000000020004d98                cbTimersHead
 .sbss.eventsClear
                0x0000000020004d9c        0x2 E:\PD_Fan\PD_Fan\Software\EXAM\BLE\LIB\libCH57xBLE.a(tmos.o)
                0x0000000020004d9c                eventsClear
 *fill*         0x0000000020004d9e        0x2 
 .sbss.pfnTimerCBs
                0x0000000020004da0        0x4 E:\PD_Fan\PD_Fan\Software\EXAM\BLE\LIB\libCH57xBLE.a(tmos.o)
                0x0000000020004da0                pfnTimerCBs
 .sbss.taskHead
                0x0000000020004da4        0x4 E:\PD_Fan\PD_Fan\Software\EXAM\BLE\LIB\libCH57xBLE.a(tmos.o)
                0x0000000020004da4                taskHead
 .sbss.tasksArr
                0x0000000020004da8        0x4 E:\PD_Fan\PD_Fan\Software\EXAM\BLE\LIB\libCH57xBLE.a(tmos.o)
                0x0000000020004da8                tasksArr
 .sbss.fnGetClockCBs
                0x0000000020004dac        0x4 E:\PD_Fan\PD_Fan\Software\EXAM\BLE\LIB\libCH57xBLE.a(tmos_hw.o)
                0x0000000020004dac                fnGetClockCBs
 .sbss.attClientNotifyTxCB
                0x0000000020004db0        0x4 E:\PD_Fan\PD_Fan\Software\EXAM\BLE\LIB\libCH57xBLE.a(att.o)
                0x0000000020004db0                attClientNotifyTxCB
 .sbss.attServerNotifyTxCB
                0x0000000020004db4        0x4 E:\PD_Fan\PD_Fan\Software\EXAM\BLE\LIB\libCH57xBLE.a(att.o)
                0x0000000020004db4                attServerNotifyTxCB
 .sbss.gapCurrentRandomAddr
                0x0000000020004db8        0x6 E:\PD_Fan\PD_Fan\Software\EXAM\BLE\LIB\libCH57xBLE.a(gap.o)
 *fill*         0x0000000020004dbe        0x2 
 .sbss.pEstLink
                0x0000000020004dc0        0x4 E:\PD_Fan\PD_Fan\Software\EXAM\BLE\LIB\libCH57xBLE.a(gap.o)
                0x0000000020004dc0                pEstLink
 .sbss.pGapAdvertState
                0x0000000020004dc4        0x4 E:\PD_Fan\PD_Fan\Software\EXAM\BLE\LIB\libCH57xBLE.a(gap.o)
                0x0000000020004dc4                pGapAdvertState
 .sbss.pfnCentralCBs
                0x0000000020004dc8        0x4 E:\PD_Fan\PD_Fan\Software\EXAM\BLE\LIB\libCH57xBLE.a(gap.o)
 .sbss.pfnCentralConnCBs
                0x0000000020004dcc        0x4 E:\PD_Fan\PD_Fan\Software\EXAM\BLE\LIB\libCH57xBLE.a(gap.o)
 .sbss.pfnPeripheralCBs
                0x0000000020004dd0        0x4 E:\PD_Fan\PD_Fan\Software\EXAM\BLE\LIB\libCH57xBLE.a(gap.o)
 .sbss.pfnPeripheralConnCBs
                0x0000000020004dd4        0x4 E:\PD_Fan\PD_Fan\Software\EXAM\BLE\LIB\libCH57xBLE.a(gap.o)
 .sbss.slaveUpdateReq
                0x0000000020004dd8        0x8 E:\PD_Fan\PD_Fan\Software\EXAM\BLE\LIB\libCH57xBLE.a(gap.o)
 .sbss.terminateAllTaskID
                0x0000000020004de0        0x1 E:\PD_Fan\PD_Fan\Software\EXAM\BLE\LIB\libCH57xBLE.a(gap.o)
 .sbss.terminateReason
                0x0000000020004de1        0x1 E:\PD_Fan\PD_Fan\Software\EXAM\BLE\LIB\libCH57xBLE.a(gap.o)
 *fill*         0x0000000020004de2        0x2 
 .sbss.gapCentralConnCBs
                0x0000000020004de4        0x8 E:\PD_Fan\PD_Fan\Software\EXAM\BLE\LIB\libCH57xBLE.a(gap_central.o)
                0x0000000020004de4                gapCentralConnCBs
 .sbss.gapMaxScanResponses
                0x0000000020004dec        0x1 E:\PD_Fan\PD_Fan\Software\EXAM\BLE\LIB\libCH57xBLE.a(gap_central.o)
                0x0000000020004dec                gapMaxScanResponses
 *fill*         0x0000000020004ded        0x3 
 .sbss.pGapDiscReq
                0x0000000020004df0        0x4 E:\PD_Fan\PD_Fan\Software\EXAM\BLE\LIB\libCH57xBLE.a(gap_central.o)
                0x0000000020004df0                pGapDiscReq
 .sbss.pGapScanRecs
                0x0000000020004df4        0x4 E:\PD_Fan\PD_Fan\Software\EXAM\BLE\LIB\libCH57xBLE.a(gap_central.o)
                0x0000000020004df4                pGapScanRecs
 .sbss.gapLimitedAdvertisingTimeout
                0x0000000020004df8        0x2 E:\PD_Fan\PD_Fan\Software\EXAM\BLE\LIB\libCH57xBLE.a(gap_peripheral.o)
 *fill*         0x0000000020004dfa        0x2 
 .sbss.gapPeripheralConnCBs
                0x0000000020004dfc        0x4 E:\PD_Fan\PD_Fan\Software\EXAM\BLE\LIB\libCH57xBLE.a(gap_peripheral.o)
 .sbss.pGapAdData
                0x0000000020004e00        0x4 E:\PD_Fan\PD_Fan\Software\EXAM\BLE\LIB\libCH57xBLE.a(gap_peripheral.o)
 .sbss.pGapAdvTokens
                0x0000000020004e04        0x4 E:\PD_Fan\PD_Fan\Software\EXAM\BLE\LIB\libCH57xBLE.a(gap_peripheral.o)
 .sbss.pGapScanRspData
                0x0000000020004e08        0x4 E:\PD_Fan\PD_Fan\Software\EXAM\BLE\LIB\libCH57xBLE.a(gap_peripheral.o)
 .sbss.appearance
                0x0000000020004e0c        0x2 E:\PD_Fan\PD_Fan\Software\EXAM\BLE\LIB\libCH57xBLE.a(gapgattserver.o)
 .sbss.ggsAddService
                0x0000000020004e0e        0x1 E:\PD_Fan\PD_Fan\Software\EXAM\BLE\LIB\libCH57xBLE.a(gapgattserver.o)
 *fill*         0x0000000020004e0f        0x1 
 .sbss.ggs_AppCBs
                0x0000000020004e10        0x4 E:\PD_Fan\PD_Fan\Software\EXAM\BLE\LIB\libCH57xBLE.a(gapgattserver.o)
 .sbss.gattTaskID
                0x0000000020004e14        0x1 E:\PD_Fan\PD_Fan\Software\EXAM\BLE\LIB\libCH57xBLE.a(gatt.o)
                0x0000000020004e14                gattTaskID
 *fill*         0x0000000020004e15        0x3 
 .sbss.pfnClientProcessMsgCB
                0x0000000020004e18        0x4 E:\PD_Fan\PD_Fan\Software\EXAM\BLE\LIB\libCH57xBLE.a(gatt.o)
                0x0000000020004e18                pfnClientProcessMsgCB
 .sbss.pfnServerProcessMsgCB
                0x0000000020004e1c        0x4 E:\PD_Fan\PD_Fan\Software\EXAM\BLE\LIB\libCH57xBLE.a(gatt.o)
                0x0000000020004e1c                pfnServerProcessMsgCB
 .sbss.attrLen  0x0000000020004e20        0x2 E:\PD_Fan\PD_Fan\Software\EXAM\BLE\LIB\libCH57xBLE.a(gattservapp.o)
 .sbss.gattAddService
                0x0000000020004e22        0x1 E:\PD_Fan\PD_Fan\Software\EXAM\BLE\LIB\libCH57xBLE.a(gattservapp.o)
 *fill*         0x0000000020004e23        0x1 
 .sbss.indCharCfg
                0x0000000020004e24        0x4 E:\PD_Fan\PD_Fan\Software\EXAM\BLE\LIB\libCH57xBLE.a(gattservapp.o)
 .sbss.pAttrValue
                0x0000000020004e28        0x4 E:\PD_Fan\PD_Fan\Software\EXAM\BLE\LIB\libCH57xBLE.a(gattservapp.o)
 .sbss.pServiceList
                0x0000000020004e2c        0x4 E:\PD_Fan\PD_Fan\Software\EXAM\BLE\LIB\libCH57xBLE.a(gattservapp.o)
 .sbss.prepareWritesTbl
                0x0000000020004e30        0x4 E:\PD_Fan\PD_Fan\Software\EXAM\BLE\LIB\libCH57xBLE.a(gattservapp.o)
 .sbss.serverInfoTbl
                0x0000000020004e34        0x4 E:\PD_Fan\PD_Fan\Software\EXAM\BLE\LIB\libCH57xBLE.a(gattservapp.o)
 .sbss.serviceCBsList
                0x0000000020004e38        0x4 E:\PD_Fan\PD_Fan\Software\EXAM\BLE\LIB\libCH57xBLE.a(gattservapp.o)
 .sbss.l2capChannels
                0x0000000020004e3c        0x4 E:\PD_Fan\PD_Fan\Software\EXAM\BLE\LIB\libCH57xBLE.a(l2cap.o)
                0x0000000020004e3c                l2capChannels
 .sbss.l2capFlowCtrlMode
                0x0000000020004e40        0x1 E:\PD_Fan\PD_Fan\Software\EXAM\BLE\LIB\libCH57xBLE.a(l2cap.o)
                0x0000000020004e40                l2capFlowCtrlMode
 .sbss.l2capId  0x0000000020004e41        0x1 E:\PD_Fan\PD_Fan\Software\EXAM\BLE\LIB\libCH57xBLE.a(l2cap.o)
                0x0000000020004e41                l2capId
 .sbss.l2capMtuSize
                0x0000000020004e42        0x2 E:\PD_Fan\PD_Fan\Software\EXAM\BLE\LIB\libCH57xBLE.a(l2cap.o)
                0x0000000020004e42                l2capMtuSize
 .sbss.l2capNumChannels
                0x0000000020004e44        0x1 E:\PD_Fan\PD_Fan\Software\EXAM\BLE\LIB\libCH57xBLE.a(l2cap.o)
                0x0000000020004e44                l2capNumChannels
 .sbss.l2capNumCoChannels
                0x0000000020004e45        0x1 E:\PD_Fan\PD_Fan\Software\EXAM\BLE\LIB\libCH57xBLE.a(l2cap.o)
                0x0000000020004e45                l2capNumCoChannels
 .sbss.l2capNumDataPkts
                0x0000000020004e46        0x1 E:\PD_Fan\PD_Fan\Software\EXAM\BLE\LIB\libCH57xBLE.a(l2cap.o)
                0x0000000020004e46                l2capNumDataPkts
 .sbss.l2capNumPSM
                0x0000000020004e47        0x1 E:\PD_Fan\PD_Fan\Software\EXAM\BLE\LIB\libCH57xBLE.a(l2cap.o)
                0x0000000020004e47                l2capNumPSM
 .sbss.l2capNumRecvDataPkts
                0x0000000020004e48        0x1 E:\PD_Fan\PD_Fan\Software\EXAM\BLE\LIB\libCH57xBLE.a(l2cap.o)
                0x0000000020004e48                l2capNumRecvDataPkts
 *fill*         0x0000000020004e49        0x3 
 .sbss.l2capPsm
                0x0000000020004e4c        0x4 E:\PD_Fan\PD_Fan\Software\EXAM\BLE\LIB\libCH57xBLE.a(l2cap.o)
                0x0000000020004e4c                l2capPsm
 .sbss.l2capTaskID
                0x0000000020004e50        0x1 E:\PD_Fan\PD_Fan\Software\EXAM\BLE\LIB\libCH57xBLE.a(l2cap.o)
                0x0000000020004e50                l2capTaskID
 *fill*         0x0000000020004e51        0x3 
 .sbss.l2capUserConfig
                0x0000000020004e54        0x2 E:\PD_Fan\PD_Fan\Software\EXAM\BLE\LIB\libCH57xBLE.a(l2cap.o)
                0x0000000020004e54                l2capUserConfig
 .sbss.nextIdx  0x0000000020004e56        0x1 E:\PD_Fan\PD_Fan\Software\EXAM\BLE\LIB\libCH57xBLE.a(l2cap.o)
                0x0000000020004e56                nextIdx
 *fill*         0x0000000020004e57        0x1 
 .sbss.linkDB   0x0000000020004e58        0x4 E:\PD_Fan\PD_Fan\Software\EXAM\BLE\LIB\libCH57xBLE.a(linkdb.o)
                0x0000000020004e58                linkDB
 .sbss.pSmGenKey
                0x0000000020004e5c        0x4 E:\PD_Fan\PD_Fan\Software\EXAM\BLE\LIB\libCH57xBLE.a(sm.o)
                0x0000000020004e5c                pSmGenKey
 .sbss.pfnInitiatorCBs
                0x0000000020004e60        0x4 E:\PD_Fan\PD_Fan\Software\EXAM\BLE\LIB\libCH57xBLE.a(sm.o)
                0x0000000020004e60                pfnInitiatorCBs
 .sbss.pfnResponderCBs
                0x0000000020004e64        0x4 E:\PD_Fan\PD_Fan\Software\EXAM\BLE\LIB\libCH57xBLE.a(sm.o)
                0x0000000020004e64                pfnResponderCBs
 .sbss.fragment.4230
                0x0000000020004e68        0x1 E:\PD_Fan\PD_Fan\Software\EXAM\BLE\LIB\libCH57xBLE.a(host_input.o)
 *fill*         0x0000000020004e69        0x3 
 .sbss.gBleHostPara
                0x0000000020004e6c        0x6 E:\PD_Fan\PD_Fan\Software\EXAM\BLE\LIB\libCH57xBLE.a(host_input.o)
                0x0000000020004e6c                gBleHostPara
 .sbss.l2cap_fragment_length
                0x0000000020004e72        0x2 E:\PD_Fan\PD_Fan\Software\EXAM\BLE\LIB\libCH57xBLE.a(host_input.o)
                0x0000000020004e72                l2cap_fragment_length
 .sbss.l2cap_head_length
                0x0000000020004e74        0x2 E:\PD_Fan\PD_Fan\Software\EXAM\BLE\LIB\libCH57xBLE.a(host_input.o)
                0x0000000020004e74                l2cap_head_length
 *fill*         0x0000000020004e76        0x2 
 .sbss.pL2capDataBuf
                0x0000000020004e78        0x4 E:\PD_Fan\PD_Fan\Software\EXAM\BLE\LIB\libCH57xBLE.a(host_input.o)
                0x0000000020004e78                pL2capDataBuf
 .sbss.llRecvDataDisable
                0x0000000020004e7c        0x4 E:\PD_Fan\PD_Fan\Software\EXAM\BLE\LIB\libCH57xBLE.a(ll_connect.o)
                0x0000000020004e7c                llRecvDataDisable
 .sbss.pfnConnectEventCBs
                0x0000000020004e80        0x4 E:\PD_Fan\PD_Fan\Software\EXAM\BLE\LIB\libCH57xBLE.a(ll_connect.o)
                0x0000000020004e80                pfnConnectEventCBs
 .sbss.CrcErrorCount
                0x0000000020004e84        0x2 E:\PD_Fan\PD_Fan\Software\EXAM\BLE\LIB\libCH57xBLE.a(ll_slave.o)
                0x0000000020004e84                CrcErrorCount
 .sbss.md_timeout
                0x0000000020004e86        0x2 E:\PD_Fan\PD_Fan\Software\EXAM\BLE\LIB\libCH57xBLE.a(ll_slave.o)
                0x0000000020004e86                md_timeout
 .sbss.reSendCount
                0x0000000020004e88        0x2 E:\PD_Fan\PD_Fan\Software\EXAM\BLE\LIB\libCH57xBLE.a(ll_slave.o)
                0x0000000020004e88                reSendCount
 .sbss.recvTimeoutCount
                0x0000000020004e8a        0x2 E:\PD_Fan\PD_Fan\Software\EXAM\BLE\LIB\libCH57xBLE.a(ll_slave.o)
                0x0000000020004e8a                recvTimeoutCount
 .sbss.gptrAESReg
                0x0000000020004e8c        0x4 E:\PD_Fan\PD_Fan\Software\EXAM\BLE\LIB\libCH57xBLE.a(aes.o)
                0x0000000020004e8c                gptrAESReg
 .sbss.gptrBBReg
                0x0000000020004e90        0x4 E:\PD_Fan\PD_Fan\Software\EXAM\BLE\LIB\libCH57xBLE.a(bb.o)
                0x0000000020004e90                gptrBBReg
 .sbss.gptrDMAReg
                0x0000000020004e94        0x4 E:\PD_Fan\PD_Fan\Software\EXAM\BLE\LIB\libCH57xBLE.a(dma.o)
                0x0000000020004e94                gptrDMAReg
 .sbss.cfo_comp
                0x0000000020004e98        0x2 E:\PD_Fan\PD_Fan\Software\EXAM\BLE\LIB\libCH57xBLE.a(ip.o)
                0x0000000020004e98                cfo_comp
 *fill*         0x0000000020004e9a        0x2 
 .sbss.gPaControl
                0x0000000020004e9c        0x4 E:\PD_Fan\PD_Fan\Software\EXAM\BLE\LIB\libCH57xBLE.a(ip.o)
                0x0000000020004e9c                gPaControl
 .sbss.gptrLLEReg
                0x0000000020004ea0        0x4 E:\PD_Fan\PD_Fan\Software\EXAM\BLE\LIB\libCH57xBLE.a(lle.o)
                0x0000000020004ea0                gptrLLEReg
 .sbss.ftuneFlag
                0x0000000020004ea4        0x4 E:\PD_Fan\PD_Fan\Software\EXAM\BLE\LIB\libCH57xBLE.a(rfend.o)
                0x0000000020004ea4                ftuneFlag
 .sbss.gModeAdc
                0x0000000020004ea8        0x1 E:\PD_Fan\PD_Fan\Software\EXAM\BLE\LIB\libCH57xBLE.a(rfend.o)
                0x0000000020004ea8                gModeAdc
 *fill*         0x0000000020004ea9        0x3 
 .sbss.gptrRFENDReg
                0x0000000020004eac        0x4 E:\PD_Fan\PD_Fan\Software\EXAM\BLE\LIB\libCH57xBLE.a(rfend.o)
                0x0000000020004eac                gptrRFENDReg
 .sbss.nCO2401  0x0000000020004eb0        0x1 E:\PD_Fan\PD_Fan\Software\EXAM\BLE\LIB\libCH57xBLE.a(rfend.o)
                0x0000000020004eb0                nCO2401
 .sbss.nCO2440  0x0000000020004eb1        0x1 E:\PD_Fan\PD_Fan\Software\EXAM\BLE\LIB\libCH57xBLE.a(rfend.o)
                0x0000000020004eb1                nCO2440
 .sbss.nCO2480  0x0000000020004eb2        0x1 E:\PD_Fan\PD_Fan\Software\EXAM\BLE\LIB\libCH57xBLE.a(rfend.o)
                0x0000000020004eb2                nCO2480
 .sbss.nGA2401  0x0000000020004eb3        0x1 E:\PD_Fan\PD_Fan\Software\EXAM\BLE\LIB\libCH57xBLE.a(rfend.o)
                0x0000000020004eb3                nGA2401
 .sbss.nGA2440  0x0000000020004eb4        0x1 E:\PD_Fan\PD_Fan\Software\EXAM\BLE\LIB\libCH57xBLE.a(rfend.o)
                0x0000000020004eb4                nGA2440
 .sbss.nGA2480  0x0000000020004eb5        0x1 E:\PD_Fan\PD_Fan\Software\EXAM\BLE\LIB\libCH57xBLE.a(rfend.o)
                0x0000000020004eb5                nGA2480
 .sbss.fragment.6323
                0x0000000020004eb6        0x1 E:\PD_Fan\PD_Fan\Software\EXAM\BLE\LIB\libCH57xBLE.a(ctl_input.o)
 *fill*         0x0000000020004eb7        0x1 
 .sbss.pGapRoles_AppCGs
                0x0000000020004eb8        0x4 E:\PD_Fan\PD_Fan\Software\EXAM\BLE\LIB\libCH57xBLE.a(broadcaster.o)
                0x0000000020004eb8                pGapRoles_AppCGs
 .sbss.autoSyncResolveList
                0x0000000020004ebc        0x1 E:\PD_Fan\PD_Fan\Software\EXAM\BLE\LIB\libCH57xBLE.a(gapbondmgr.o)
 .sbss.autoSyncWhiteList
                0x0000000020004ebd        0x1 E:\PD_Fan\PD_Fan\Software\EXAM\BLE\LIB\libCH57xBLE.a(gapbondmgr.o)
 .sbss.bondIdx  0x0000000020004ebe        0x1 E:\PD_Fan\PD_Fan\Software\EXAM\BLE\LIB\libCH57xBLE.a(gapbondmgr.o)
 *fill*         0x0000000020004ebf        0x1 
 .sbss.bonds    0x0000000020004ec0        0x4 E:\PD_Fan\PD_Fan\Software\EXAM\BLE\LIB\libCH57xBLE.a(gapbondmgr.o)
 .sbss.eraseAllBonds
                0x0000000020004ec4        0x1 E:\PD_Fan\PD_Fan\Software\EXAM\BLE\LIB\libCH57xBLE.a(gapbondmgr.o)
 .sbss.gapBondMax
                0x0000000020004ec5        0x1 E:\PD_Fan\PD_Fan\Software\EXAM\BLE\LIB\libCH57xBLE.a(gapbondmgr.o)
 .sbss.gapBondMgr_TaskID
                0x0000000020004ec6        0x1 E:\PD_Fan\PD_Fan\Software\EXAM\BLE\LIB\libCH57xBLE.a(gapbondmgr.o)
 *fill*         0x0000000020004ec7        0x1 
 .sbss.gapBondSignAddr
                0x0000000020004ec8        0x7 E:\PD_Fan\PD_Fan\Software\EXAM\BLE\LIB\libCH57xBLE.a(gapbondmgr.o)
                0x0000000020004ec8                gapBondSignAddr
 .sbss.gapBondSign_Valid
                0x0000000020004ecf        0x1 E:\PD_Fan\PD_Fan\Software\EXAM\BLE\LIB\libCH57xBLE.a(gapbondmgr.o)
                0x0000000020004ecf                gapBondSign_Valid
 .sbss.gapBond_AutoFail
                0x0000000020004ed0        0x1 E:\PD_Fan\PD_Fan\Software\EXAM\BLE\LIB\libCH57xBLE.a(gapbondmgr.o)
 .sbss.gapBond_Cent_AuthReq
                0x0000000020004ed1        0x1 E:\PD_Fan\PD_Fan\Software\EXAM\BLE\LIB\libCH57xBLE.a(gapbondmgr.o)
 .sbss.gapBond_Cent_IOCap
                0x0000000020004ed2        0x1 E:\PD_Fan\PD_Fan\Software\EXAM\BLE\LIB\libCH57xBLE.a(gapbondmgr.o)
 .sbss.gapBond_Cent_KeyDistList
                0x0000000020004ed3        0x1 E:\PD_Fan\PD_Fan\Software\EXAM\BLE\LIB\libCH57xBLE.a(gapbondmgr.o)
 .sbss.gapBond_Cent_OOBDataFlag
                0x0000000020004ed4        0x1 E:\PD_Fan\PD_Fan\Software\EXAM\BLE\LIB\libCH57xBLE.a(gapbondmgr.o)
 *fill*         0x0000000020004ed5        0x3 
 .sbss.gapBond_Cent_Passcode
                0x0000000020004ed8        0x4 E:\PD_Fan\PD_Fan\Software\EXAM\BLE\LIB\libCH57xBLE.a(gapbondmgr.o)
 .sbss.gapBond_Invalid
                0x0000000020004edc        0x1 E:\PD_Fan\PD_Fan\Software\EXAM\BLE\LIB\libCH57xBLE.a(gapbondmgr.o)
                0x0000000020004edc                gapBond_Invalid
 .sbss.gapBond_Peri_AuthReq
                0x0000000020004edd        0x1 E:\PD_Fan\PD_Fan\Software\EXAM\BLE\LIB\libCH57xBLE.a(gapbondmgr.o)
 .sbss.gapBond_Peri_IOCap
                0x0000000020004ede        0x1 E:\PD_Fan\PD_Fan\Software\EXAM\BLE\LIB\libCH57xBLE.a(gapbondmgr.o)
 .sbss.gapBond_Peri_KeyDistList
                0x0000000020004edf        0x1 E:\PD_Fan\PD_Fan\Software\EXAM\BLE\LIB\libCH57xBLE.a(gapbondmgr.o)
 .sbss.gapBond_Peri_OOBDataFlag
                0x0000000020004ee0        0x1 E:\PD_Fan\PD_Fan\Software\EXAM\BLE\LIB\libCH57xBLE.a(gapbondmgr.o)
 *fill*         0x0000000020004ee1        0x3 
 .sbss.gapBond_Peri_Passcode
                0x0000000020004ee4        0x4 E:\PD_Fan\PD_Fan\Software\EXAM\BLE\LIB\libCH57xBLE.a(gapbondmgr.o)
 .sbss.gattCCFlag
                0x0000000020004ee8        0x1 E:\PD_Fan\PD_Fan\Software\EXAM\BLE\LIB\libCH57xBLE.a(gapbondmgr.o)
 *fill*         0x0000000020004ee9        0x3 
 .sbss.pAttr.4291
                0x0000000020004eec        0x4 E:\PD_Fan\PD_Fan\Software\EXAM\BLE\LIB\libCH57xBLE.a(gapbondmgr.o)
 .sbss.pAuthEvt
                0x0000000020004ef0        0x4 E:\PD_Fan\PD_Fan\Software\EXAM\BLE\LIB\libCH57xBLE.a(gapbondmgr.o)
 .sbss.pGapBondCB
                0x0000000020004ef4        0x4 E:\PD_Fan\PD_Fan\Software\EXAM\BLE\LIB\libCH57xBLE.a(gapbondmgr.o)
 .sbss.pGapCentBondCB
                0x0000000020004ef8        0x4 E:\PD_Fan\PD_Fan\Software\EXAM\BLE\LIB\libCH57xBLE.a(gapbondmgr.o)
 .sbss.pGapPeriBondCB
                0x0000000020004efc        0x4 E:\PD_Fan\PD_Fan\Software\EXAM\BLE\LIB\libCH57xBLE.a(gapbondmgr.o)
 .sbss.service.4292
                0x0000000020004f00        0x2 E:\PD_Fan\PD_Fan\Software\EXAM\BLE\LIB\libCH57xBLE.a(gapbondmgr.o)
 *fill*         0x0000000020004f02        0x2 
 .sbss.pGapRoles_AppCGs
                0x0000000020004f04        0x4 E:\PD_Fan\PD_Fan\Software\EXAM\BLE\LIB\libCH57xBLE.a(peripheral.o)
 .sbss.gapMaxScanRes
                0x0000000020004f08        0x1 E:\PD_Fan\PD_Fan\Software\EXAM\BLE\LIB\libCH57xBLE.a(role.o)
                0x0000000020004f08                gapMaxScanRes
 .sbss.gapRole_AdvChanMap
                0x0000000020004f09        0x1 E:\PD_Fan\PD_Fan\Software\EXAM\BLE\LIB\libCH57xBLE.a(role.o)
                0x0000000020004f09                gapRole_AdvChanMap
 *fill*         0x0000000020004f0a        0x2 
 .sbss.gapRole_AdvDirectAddr
                0x0000000020004f0c        0x6 E:\PD_Fan\PD_Fan\Software\EXAM\BLE\LIB\libCH57xBLE.a(role.o)
                0x0000000020004f0c                gapRole_AdvDirectAddr
 .sbss.gapRole_AdvDirectType
                0x0000000020004f12        0x1 E:\PD_Fan\PD_Fan\Software\EXAM\BLE\LIB\libCH57xBLE.a(role.o)
                0x0000000020004f12                gapRole_AdvDirectType
 .sbss.gapRole_AdvEventType
                0x0000000020004f13        0x1 E:\PD_Fan\PD_Fan\Software\EXAM\BLE\LIB\libCH57xBLE.a(role.o)
                0x0000000020004f13                gapRole_AdvEventType
 .sbss.gapRole_AdvFilterPolicy
                0x0000000020004f14        0x1 E:\PD_Fan\PD_Fan\Software\EXAM\BLE\LIB\libCH57xBLE.a(role.o)
                0x0000000020004f14                gapRole_AdvFilterPolicy
 *fill*         0x0000000020004f15        0x3 
 .sbss.gapRole_AdvertData
                0x0000000020004f18        0x4 E:\PD_Fan\PD_Fan\Software\EXAM\BLE\LIB\libCH57xBLE.a(role.o)
                0x0000000020004f18                gapRole_AdvertData
 .sbss.gapRole_MasterAndSlave
                0x0000000020004f1c        0x1 E:\PD_Fan\PD_Fan\Software\EXAM\BLE\LIB\libCH57xBLE.a(role.o)
                0x0000000020004f1c                gapRole_MasterAndSlave
 *fill*         0x0000000020004f1d        0x3 
 .sbss.gapRole_ScanRspData
                0x0000000020004f20        0x4 E:\PD_Fan\PD_Fan\Software\EXAM\BLE\LIB\libCH57xBLE.a(role.o)
                0x0000000020004f20                gapRole_ScanRspData
 .sbss.gapRole_ScanRspDataLen
                0x0000000020004f24        0x1 E:\PD_Fan\PD_Fan\Software\EXAM\BLE\LIB\libCH57xBLE.a(role.o)
                0x0000000020004f24                gapRole_ScanRspDataLen
 *fill*         0x0000000020004f25        0x3 
 .sbss.gapRole_bdAddr
                0x0000000020004f28        0x6 E:\PD_Fan\PD_Fan\Software\EXAM\BLE\LIB\libCH57xBLE.a(role.o)
                0x0000000020004f28                gapRole_bdAddr
 .sbss.gapRole_profileRole
                0x0000000020004f2e        0x1 E:\PD_Fan\PD_Fan\Software\EXAM\BLE\LIB\libCH57xBLE.a(role.o)
                0x0000000020004f2e                gapRole_profileRole
 *fill*         0x0000000020004f2f        0x1 
 .sbss.gapRole_signCounter
                0x0000000020004f30        0x4 E:\PD_Fan\PD_Fan\Software\EXAM\BLE\LIB\libCH57xBLE.a(role.o)
                0x0000000020004f30                gapRole_signCounter
 .sbss.gapRole_state
                0x0000000020004f34        0x4 E:\PD_Fan\PD_Fan\Software\EXAM\BLE\LIB\libCH57xBLE.a(role.o)
                0x0000000020004f34                gapRole_state
 .sbss.MemCtlEnd
                0x0000000020004f38        0x4 E:\PD_Fan\PD_Fan\Software\EXAM\BLE\LIB\libCH57xBLE.a(memory.o)
                0x0000000020004f38                MemCtlEnd
 .sbss.MemCtlPartition
                0x0000000020004f3c        0x4 E:\PD_Fan\PD_Fan\Software\EXAM\BLE\LIB\libCH57xBLE.a(memory.o)
                0x0000000020004f3c                MemCtlPartition
 .sbss.MemCtlStart
                0x0000000020004f40        0x4 E:\PD_Fan\PD_Fan\Software\EXAM\BLE\LIB\libCH57xBLE.a(memory.o)
                0x0000000020004f40                MemCtlStart
 .sbss.pfnAdvertiseEventCBs
                0x0000000020004f44        0x4 E:\PD_Fan\PD_Fan\Software\EXAM\BLE\LIB\libCH57xBLE.a(ll_advertise.o)
                0x0000000020004f44                pfnAdvertiseEventCBs
 .sbss.__malloc_free_list
                0x0000000020004f48        0x4 c:/mounriver/mounriver_studio/toolchain/risc-v embedded gcc/bin/../lib/gcc/riscv-none-embed/8.2.0/../../../../riscv-none-embed/lib/rv32imac/ilp32\libg_nano.a(lib_a-nano-mallocr.o)
                0x0000000020004f48                __malloc_free_list
 .sbss.__malloc_sbrk_start
                0x0000000020004f4c        0x4 c:/mounriver/mounriver_studio/toolchain/risc-v embedded gcc/bin/../lib/gcc/riscv-none-embed/8.2.0/../../../../riscv-none-embed/lib/rv32imac/ilp32\libg_nano.a(lib_a-nano-mallocr.o)
                0x0000000020004f4c                __malloc_sbrk_start
 .sbss.heap_end.1518
                0x0000000020004f50        0x4 c:/mounriver/mounriver_studio/toolchain/risc-v embedded gcc/bin/../lib/gcc/riscv-none-embed/8.2.0/../../../../riscv-none-embed/lib/rv32imac/ilp32\libnosys.a(sbrk.o)
 *(.gnu.linkonce.sb.*)
 *(.bss*)
 .bss.Debug_TxCCCD1
                0x0000000020004f54       0x10 ./Profile/debug_service.o
 .bss.Debug_Value1
                0x0000000020004f64       0xc8 ./Profile/debug_service.o
 .bss.dataflash_block_buf
                0x000000002000502c      0x100 ./APP/User_config.o
 .bss.MEM_BUF   0x000000002000512c     0x1800 ./APP/peripheral_main.o
                0x000000002000512c                MEM_BUF
 .bss.ble       0x000000002000692c       0x3c E:\PD_Fan\PD_Fan\Software\EXAM\BLE\LIB\libCH57xBLE.a(tmos.o)
                0x000000002000692c                ble
 .bss.gTmosPara
                0x0000000020006968       0x24 E:\PD_Fan\PD_Fan\Software\EXAM\BLE\LIB\libCH57xBLE.a(tmos.o)
                0x0000000020006968                gTmosPara
 .bss.pfnProcessCBs
                0x000000002000698c       0x1c E:\PD_Fan\PD_Fan\Software\EXAM\BLE\LIB\libCH57xBLE.a(tmos.o)
                0x000000002000698c                pfnProcessCBs
 .bss.gapParameters
                0x00000000200069a8       0x34 E:\PD_Fan\PD_Fan\Software\EXAM\BLE\LIB\libCH57xBLE.a(gap.o)
                0x00000000200069a8                gapParameters
 .bss.gapParams
                0x00000000200069dc       0x20 E:\PD_Fan\PD_Fan\Software\EXAM\BLE\LIB\libCH57xBLE.a(gap.o)
                0x00000000200069dc                gapParams
 .bss.gapCentralCBs
                0x00000000200069fc        0xc E:\PD_Fan\PD_Fan\Software\EXAM\BLE\LIB\libCH57xBLE.a(gap_central.o)
                0x00000000200069fc                gapCentralCBs
 .bss.gapPeripheralCBs
                0x0000000020006a08        0xc E:\PD_Fan\PD_Fan\Software\EXAM\BLE\LIB\libCH57xBLE.a(gap_peripheral.o)
 .bss.deviceName
                0x0000000020006a14       0x16 E:\PD_Fan\PD_Fan\Software\EXAM\BLE\LIB\libCH57xBLE.a(gapgattserver.o)
 *fill*         0x0000000020006a2a        0x2 
 .bss.rsp       0x0000000020006a2c       0x18 E:\PD_Fan\PD_Fan\Software\EXAM\BLE\LIB\libCH57xBLE.a(gattservapp.o)
 .bss.l2capFixedChannels
                0x0000000020006a44       0x30 E:\PD_Fan\PD_Fan\Software\EXAM\BLE\LIB\libCH57xBLE.a(l2cap.o)
                0x0000000020006a44                l2capFixedChannels
 .bss.linkCBs   0x0000000020006a74       0x30 E:\PD_Fan\PD_Fan\Software\EXAM\BLE\LIB\libCH57xBLE.a(linkdb.o)
                0x0000000020006a74                linkCBs
 .bss.gBleIPPara
                0x0000000020006aa4       0x1c E:\PD_Fan\PD_Fan\Software\EXAM\BLE\LIB\libCH57xBLE.a(ip.o)
                0x0000000020006aa4                gBleIPPara
 .bss.rfConfig  0x0000000020006ac0       0x20 E:\PD_Fan\PD_Fan\Software\EXAM\BLE\LIB\libCH57xBLE.a(ip.o)
                0x0000000020006ac0                rfConfig
 .bss.rfInfo    0x0000000020006ae0       0x1c E:\PD_Fan\PD_Fan\Software\EXAM\BLE\LIB\libCH57xBLE.a(rf_fh.o)
                0x0000000020006ae0                rfInfo
 .bss.gapBond_Cent_OOBData
                0x0000000020006afc       0x10 E:\PD_Fan\PD_Fan\Software\EXAM\BLE\LIB\libCH57xBLE.a(gapbondmgr.o)
 .bss.gapBond_Peri_OOBData
                0x0000000020006b0c       0x10 E:\PD_Fan\PD_Fan\Software\EXAM\BLE\LIB\libCH57xBLE.a(gapbondmgr.o)
 .bss.gapRole_OldIRK
                0x0000000020006b1c       0x10 E:\PD_Fan\PD_Fan\Software\EXAM\BLE\LIB\libCH57xBLE.a(peripheral.o)
 .bss.gapRole_OldSRK
                0x0000000020006b2c       0x10 E:\PD_Fan\PD_Fan\Software\EXAM\BLE\LIB\libCH57xBLE.a(peripheral.o)
 .bss.gapRole_IRK
                0x0000000020006b3c       0x10 E:\PD_Fan\PD_Fan\Software\EXAM\BLE\LIB\libCH57xBLE.a(role.o)
                0x0000000020006b3c                gapRole_IRK
 .bss.gapRole_SRK
                0x0000000020006b4c       0x10 E:\PD_Fan\PD_Fan\Software\EXAM\BLE\LIB\libCH57xBLE.a(role.o)
                0x0000000020006b4c                gapRole_SRK
 .bss.gBleLlPara
                0x0000000020006b5c       0xac E:\PD_Fan\PD_Fan\Software\EXAM\BLE\LIB\libCH57xBLE.a(ll.o)
                0x0000000020006b5c                gBleLlPara
 *(.gnu.linkonce.b.*)
 *(COMMON*)
 COMMON         0x0000000020006c08        0x4 c:/mounriver/mounriver_studio/toolchain/risc-v embedded gcc/bin/../lib/gcc/riscv-none-embed/8.2.0/../../../../riscv-none-embed/lib/rv32imac/ilp32\libg_nano.a(lib_a-reent.o)
                0x0000000020006c08                errno
                0x0000000020006c0c                . = ALIGN (0x4)
                0x0000000020006c0c                PROVIDE (_ebss = .)
                [!provide]                        PROVIDE (_end = _ebss)
                0x0000000020006c0c                PROVIDE (end = .)

.stack          0x0000000020008000        0x0
                0x0000000020008000                . = ALIGN (0x4)
                0x0000000020008000                PROVIDE (_eusrstack = .)
OUTPUT(PD_Fan.elf elf32-littleriscv)

.debug_info     0x0000000000000000    0x124c1
 .debug_info    0x0000000000000000      0xed2 ./StdPeriphDriver/CH57x_adc.o
 .debug_info    0x0000000000000ed2     0x167b ./StdPeriphDriver/CH57x_clk.o
 .debug_info    0x000000000000254d      0xdae ./StdPeriphDriver/CH57x_gpio.o
 .debug_info    0x00000000000032fb     0x135e ./StdPeriphDriver/CH57x_sys.o
 .debug_info    0x0000000000004659      0xda4 ./StdPeriphDriver/CH57x_timer1.o
 .debug_info    0x00000000000053fd      0xda4 ./StdPeriphDriver/CH57x_timer2.o
 .debug_info    0x00000000000061a1      0xd86 ./StdPeriphDriver/CH57x_uart1.o
 .debug_info    0x0000000000006f27       0x22 ./Startup/startup_CH573.o
 .debug_info    0x0000000000006f49     0x20ce ./Profile/debug_service.o
 .debug_info    0x0000000000009017     0x133e ./Profile/devinfoservice.o
 .debug_info    0x000000000000a355     0x1817 ./HAL/MCU.o
 .debug_info    0x000000000000bb6c      0xe8b ./HAL/RTC.o
 .debug_info    0x000000000000c9f7     0x1136 ./APP/Fan.o
 .debug_info    0x000000000000db2d      0xfb5 ./APP/User_config.o
 .debug_info    0x000000000000eae2     0x2ad5 ./APP/peripheral.o
 .debug_info    0x00000000000115b7      0xf0a ./APP/peripheral_main.o

.debug_abbrev   0x0000000000000000     0x2e7a
 .debug_abbrev  0x0000000000000000      0x2cf ./StdPeriphDriver/CH57x_adc.o
 .debug_abbrev  0x00000000000002cf      0x3bf ./StdPeriphDriver/CH57x_clk.o
 .debug_abbrev  0x000000000000068e      0x268 ./StdPeriphDriver/CH57x_gpio.o
 .debug_abbrev  0x00000000000008f6      0x392 ./StdPeriphDriver/CH57x_sys.o
 .debug_abbrev  0x0000000000000c88      0x246 ./StdPeriphDriver/CH57x_timer1.o
 .debug_abbrev  0x0000000000000ece      0x246 ./StdPeriphDriver/CH57x_timer2.o
 .debug_abbrev  0x0000000000001114      0x2aa ./StdPeriphDriver/CH57x_uart1.o
 .debug_abbrev  0x00000000000013be       0x12 ./Startup/startup_CH573.o
 .debug_abbrev  0x00000000000013d0      0x438 ./Profile/debug_service.o
 .debug_abbrev  0x0000000000001808      0x2cc ./Profile/devinfoservice.o
 .debug_abbrev  0x0000000000001ad4      0x42f ./HAL/MCU.o
 .debug_abbrev  0x0000000000001f03      0x2ab ./HAL/RTC.o
 .debug_abbrev  0x00000000000021ae      0x323 ./APP/Fan.o
 .debug_abbrev  0x00000000000024d1      0x2a0 ./APP/User_config.o
 .debug_abbrev  0x0000000000002771      0x481 ./APP/peripheral.o
 .debug_abbrev  0x0000000000002bf2      0x288 ./APP/peripheral_main.o

.debug_loc      0x0000000000000000     0x2bc1
 .debug_loc     0x0000000000000000      0x1f2 ./StdPeriphDriver/CH57x_adc.o
 .debug_loc     0x00000000000001f2      0xb65 ./StdPeriphDriver/CH57x_clk.o
 .debug_loc     0x0000000000000d57      0x361 ./StdPeriphDriver/CH57x_gpio.o
 .debug_loc     0x00000000000010b8      0x28b ./StdPeriphDriver/CH57x_sys.o
 .debug_loc     0x0000000000001343       0x84 ./StdPeriphDriver/CH57x_timer1.o
 .debug_loc     0x00000000000013c7       0x84 ./StdPeriphDriver/CH57x_timer2.o
 .debug_loc     0x000000000000144b      0x1ed ./StdPeriphDriver/CH57x_uart1.o
 .debug_loc     0x0000000000001638      0x795 ./Profile/debug_service.o
 .debug_loc     0x0000000000001dcd      0x35c ./Profile/devinfoservice.o
 .debug_loc     0x0000000000002129      0x26c ./HAL/MCU.o
 .debug_loc     0x0000000000002395      0x17a ./APP/Fan.o
 .debug_loc     0x000000000000250f       0x63 ./APP/User_config.o
 .debug_loc     0x0000000000002572      0x64f ./APP/peripheral.o

.debug_aranges  0x0000000000000000      0x510
 .debug_aranges
                0x0000000000000000       0x70 ./StdPeriphDriver/CH57x_adc.o
 .debug_aranges
                0x0000000000000070       0xb0 ./StdPeriphDriver/CH57x_clk.o
 .debug_aranges
                0x0000000000000120       0x48 ./StdPeriphDriver/CH57x_gpio.o
 .debug_aranges
                0x0000000000000168       0x88 ./StdPeriphDriver/CH57x_sys.o
 .debug_aranges
                0x00000000000001f0       0x40 ./StdPeriphDriver/CH57x_timer1.o
 .debug_aranges
                0x0000000000000230       0x40 ./StdPeriphDriver/CH57x_timer2.o
 .debug_aranges
                0x0000000000000270       0x50 ./StdPeriphDriver/CH57x_uart1.o
 .debug_aranges
                0x00000000000002c0       0x38 ./Startup/startup_CH573.o
 .debug_aranges
                0x00000000000002f8       0x50 ./Profile/debug_service.o
 .debug_aranges
                0x0000000000000348       0x38 ./Profile/devinfoservice.o
 .debug_aranges
                0x0000000000000380       0x50 ./HAL/MCU.o
 .debug_aranges
                0x00000000000003d0       0x30 ./HAL/RTC.o
 .debug_aranges
                0x0000000000000400       0x60 ./APP/Fan.o
 .debug_aranges
                0x0000000000000460       0x30 ./APP/User_config.o
 .debug_aranges
                0x0000000000000490       0x58 ./APP/peripheral.o
 .debug_aranges
                0x00000000000004e8       0x28 ./APP/peripheral_main.o

.debug_ranges   0x0000000000000000      0x680
 .debug_ranges  0x0000000000000000       0x60 ./StdPeriphDriver/CH57x_adc.o
 .debug_ranges  0x0000000000000060      0x198 ./StdPeriphDriver/CH57x_clk.o
 .debug_ranges  0x00000000000001f8       0x38 ./StdPeriphDriver/CH57x_gpio.o
 .debug_ranges  0x0000000000000230       0x90 ./StdPeriphDriver/CH57x_sys.o
 .debug_ranges  0x00000000000002c0       0x30 ./StdPeriphDriver/CH57x_timer1.o
 .debug_ranges  0x00000000000002f0       0x30 ./StdPeriphDriver/CH57x_timer2.o
 .debug_ranges  0x0000000000000320       0x40 ./StdPeriphDriver/CH57x_uart1.o
 .debug_ranges  0x0000000000000360       0x30 ./Startup/startup_CH573.o
 .debug_ranges  0x0000000000000390       0xf8 ./Profile/debug_service.o
 .debug_ranges  0x0000000000000488       0x28 ./Profile/devinfoservice.o
 .debug_ranges  0x00000000000004b0       0x80 ./HAL/MCU.o
 .debug_ranges  0x0000000000000530       0x50 ./HAL/RTC.o
 .debug_ranges  0x0000000000000580       0x50 ./APP/Fan.o
 .debug_ranges  0x00000000000005d0       0x20 ./APP/User_config.o
 .debug_ranges  0x00000000000005f0       0x78 ./APP/peripheral.o
 .debug_ranges  0x0000000000000668       0x18 ./APP/peripheral_main.o

.debug_line     0x0000000000000000     0x86de
 .debug_line    0x0000000000000000      0x8c6 ./StdPeriphDriver/CH57x_adc.o
 .debug_line    0x00000000000008c6     0x1d6c ./StdPeriphDriver/CH57x_clk.o
 .debug_line    0x0000000000002632      0x773 ./StdPeriphDriver/CH57x_gpio.o
 .debug_line    0x0000000000002da5      0xcfe ./StdPeriphDriver/CH57x_sys.o
 .debug_line    0x0000000000003aa3      0x47f ./StdPeriphDriver/CH57x_timer1.o
 .debug_line    0x0000000000003f22      0x47f ./StdPeriphDriver/CH57x_timer2.o
 .debug_line    0x00000000000043a1      0x5b6 ./StdPeriphDriver/CH57x_uart1.o
 .debug_line    0x0000000000004957      0x25f ./Startup/startup_CH573.o
 .debug_line    0x0000000000004bb6      0x920 ./Profile/debug_service.o
 .debug_line    0x00000000000054d6      0x703 ./Profile/devinfoservice.o
 .debug_line    0x0000000000005bd9      0xae0 ./HAL/MCU.o
 .debug_line    0x00000000000066b9      0x48e ./HAL/RTC.o
 .debug_line    0x0000000000006b47      0x6b8 ./APP/Fan.o
 .debug_line    0x00000000000071ff      0x4dc ./APP/User_config.o
 .debug_line    0x00000000000076db      0xc37 ./APP/peripheral.o
 .debug_line    0x0000000000008312      0x3cc ./APP/peripheral_main.o

.debug_str      0x0000000000000000     0x30c8
 .debug_str     0x0000000000000000      0x989 ./StdPeriphDriver/CH57x_adc.o
                                        0xa0e (size before relaxing)
 .debug_str     0x0000000000000989      0x4b5 ./StdPeriphDriver/CH57x_clk.o
                                        0xc0e (size before relaxing)
 .debug_str     0x0000000000000e3e      0x181 ./StdPeriphDriver/CH57x_gpio.o
                                        0x8e5 (size before relaxing)
 .debug_str     0x0000000000000fbf      0x39a ./StdPeriphDriver/CH57x_sys.o
                                        0xb4f (size before relaxing)
 .debug_str     0x0000000000001359      0x14c ./StdPeriphDriver/CH57x_timer1.o
                                        0x8ef (size before relaxing)
 .debug_str     0x00000000000014a5       0x91 ./StdPeriphDriver/CH57x_timer2.o
                                        0x8ef (size before relaxing)
 .debug_str     0x0000000000001536      0x10b ./StdPeriphDriver/CH57x_uart1.o
                                        0x88a (size before relaxing)
 .debug_str     0x0000000000001641       0x47 ./Startup/startup_CH573.o
                                         0x75 (size before relaxing)
 .debug_str     0x0000000000001688      0x9bf ./Profile/debug_service.o
                                       0x118b (size before relaxing)
 .debug_str     0x0000000000002047      0x2d3 ./Profile/devinfoservice.o
                                        0xcda (size before relaxing)
 .debug_str     0x000000000000231a      0x431 ./HAL/MCU.o
                                        0xe53 (size before relaxing)
 .debug_str     0x000000000000274b       0x60 ./HAL/RTC.o
                                        0x9b6 (size before relaxing)
 .debug_str     0x00000000000027ab      0x105 ./APP/Fan.o
                                        0xbbd (size before relaxing)
 .debug_str     0x00000000000028b0       0x68 ./APP/User_config.o
                                        0x9ee (size before relaxing)
 .debug_str     0x0000000000002918      0x757 ./APP/peripheral.o
                                       0x1752 (size before relaxing)
 .debug_str     0x000000000000306f       0x59 ./APP/peripheral_main.o
                                        0xb4c (size before relaxing)

.comment        0x0000000000000000       0x33
 .comment       0x0000000000000000       0x33 ./StdPeriphDriver/CH57x_adc.o
                                         0x34 (size before relaxing)
 .comment       0x0000000000000033       0x34 ./StdPeriphDriver/CH57x_clk.o
 .comment       0x0000000000000033       0x34 ./StdPeriphDriver/CH57x_gpio.o
 .comment       0x0000000000000033       0x34 ./StdPeriphDriver/CH57x_sys.o
 .comment       0x0000000000000033       0x34 ./StdPeriphDriver/CH57x_timer1.o
 .comment       0x0000000000000033       0x34 ./StdPeriphDriver/CH57x_timer2.o
 .comment       0x0000000000000033       0x34 ./StdPeriphDriver/CH57x_uart1.o
 .comment       0x0000000000000033       0x34 ./Profile/debug_service.o
 .comment       0x0000000000000033       0x34 ./Profile/devinfoservice.o
 .comment       0x0000000000000033       0x34 ./HAL/MCU.o
 .comment       0x0000000000000033       0x34 ./HAL/RTC.o
 .comment       0x0000000000000033       0x34 ./APP/Fan.o
 .comment       0x0000000000000033       0x34 ./APP/User_config.o
 .comment       0x0000000000000033       0x34 ./APP/peripheral.o
 .comment       0x0000000000000033       0x34 ./APP/peripheral_main.o
 .comment       0x0000000000000033       0x34 E:\PD_Fan\PD_Fan\Software\EXAM\SRC\StdPeriphDriver\libISP573.a(ISP573.o)
 .comment       0x0000000000000033       0x34 E:\PD_Fan\PD_Fan\Software\EXAM\BLE\LIB\libCH57xBLE.a(message.o)
 .comment       0x0000000000000033       0x34 E:\PD_Fan\PD_Fan\Software\EXAM\BLE\LIB\libCH57xBLE.a(tmos.o)
 .comment       0x0000000000000033       0x34 E:\PD_Fan\PD_Fan\Software\EXAM\BLE\LIB\libCH57xBLE.a(tmos_hw.o)
 .comment       0x0000000000000033       0x34 E:\PD_Fan\PD_Fan\Software\EXAM\BLE\LIB\libCH57xBLE.a(tmos_snv.o)
 .comment       0x0000000000000033       0x34 E:\PD_Fan\PD_Fan\Software\EXAM\BLE\LIB\libCH57xBLE.a(att.o)
 .comment       0x0000000000000033       0x34 E:\PD_Fan\PD_Fan\Software\EXAM\BLE\LIB\libCH57xBLE.a(gap.o)
 .comment       0x0000000000000033       0x34 E:\PD_Fan\PD_Fan\Software\EXAM\BLE\LIB\libCH57xBLE.a(gap_central.o)
 .comment       0x0000000000000033       0x34 E:\PD_Fan\PD_Fan\Software\EXAM\BLE\LIB\libCH57xBLE.a(gap_peripheral.o)
 .comment       0x0000000000000033       0x34 E:\PD_Fan\PD_Fan\Software\EXAM\BLE\LIB\libCH57xBLE.a(gapgattserver.o)
 .comment       0x0000000000000033       0x34 E:\PD_Fan\PD_Fan\Software\EXAM\BLE\LIB\libCH57xBLE.a(gatt.o)
 .comment       0x0000000000000033       0x34 E:\PD_Fan\PD_Fan\Software\EXAM\BLE\LIB\libCH57xBLE.a(gatt_uuid.o)
 .comment       0x0000000000000033       0x34 E:\PD_Fan\PD_Fan\Software\EXAM\BLE\LIB\libCH57xBLE.a(gattservapp.o)
 .comment       0x0000000000000033       0x34 E:\PD_Fan\PD_Fan\Software\EXAM\BLE\LIB\libCH57xBLE.a(l2cap.o)
 .comment       0x0000000000000033       0x34 E:\PD_Fan\PD_Fan\Software\EXAM\BLE\LIB\libCH57xBLE.a(l2cap_input.o)
 .comment       0x0000000000000033       0x34 E:\PD_Fan\PD_Fan\Software\EXAM\BLE\LIB\libCH57xBLE.a(l2cap_output.o)
 .comment       0x0000000000000033       0x34 E:\PD_Fan\PD_Fan\Software\EXAM\BLE\LIB\libCH57xBLE.a(l2cap_sdu.o)
 .comment       0x0000000000000033       0x34 E:\PD_Fan\PD_Fan\Software\EXAM\BLE\LIB\libCH57xBLE.a(linkdb.o)
 .comment       0x0000000000000033       0x34 E:\PD_Fan\PD_Fan\Software\EXAM\BLE\LIB\libCH57xBLE.a(sm.o)
 .comment       0x0000000000000033       0x34 E:\PD_Fan\PD_Fan\Software\EXAM\BLE\LIB\libCH57xBLE.a(host_input.o)
 .comment       0x0000000000000033       0x34 E:\PD_Fan\PD_Fan\Software\EXAM\BLE\LIB\libCH57xBLE.a(host_output.o)
 .comment       0x0000000000000033       0x34 E:\PD_Fan\PD_Fan\Software\EXAM\BLE\LIB\libCH57xBLE.a(ll_connect.o)
 .comment       0x0000000000000033       0x34 E:\PD_Fan\PD_Fan\Software\EXAM\BLE\LIB\libCH57xBLE.a(ll_core.o)
 .comment       0x0000000000000033       0x34 E:\PD_Fan\PD_Fan\Software\EXAM\BLE\LIB\libCH57xBLE.a(ll_hop.o)
 .comment       0x0000000000000033       0x34 E:\PD_Fan\PD_Fan\Software\EXAM\BLE\LIB\libCH57xBLE.a(ll_master.o)
 .comment       0x0000000000000033       0x34 E:\PD_Fan\PD_Fan\Software\EXAM\BLE\LIB\libCH57xBLE.a(ll_pdu.o)
 .comment       0x0000000000000033       0x34 E:\PD_Fan\PD_Fan\Software\EXAM\BLE\LIB\libCH57xBLE.a(ll_report.o)
 .comment       0x0000000000000033       0x34 E:\PD_Fan\PD_Fan\Software\EXAM\BLE\LIB\libCH57xBLE.a(ll_scan.o)
 .comment       0x0000000000000033       0x34 E:\PD_Fan\PD_Fan\Software\EXAM\BLE\LIB\libCH57xBLE.a(ll_slave.o)
 .comment       0x0000000000000033       0x34 E:\PD_Fan\PD_Fan\Software\EXAM\BLE\LIB\libCH57xBLE.a(ll_whitelist.o)
 .comment       0x0000000000000033       0x34 E:\PD_Fan\PD_Fan\Software\EXAM\BLE\LIB\libCH57xBLE.a(aes.o)
 .comment       0x0000000000000033       0x34 E:\PD_Fan\PD_Fan\Software\EXAM\BLE\LIB\libCH57xBLE.a(bb.o)
 .comment       0x0000000000000033       0x34 E:\PD_Fan\PD_Fan\Software\EXAM\BLE\LIB\libCH57xBLE.a(dma.o)
 .comment       0x0000000000000033       0x34 E:\PD_Fan\PD_Fan\Software\EXAM\BLE\LIB\libCH57xBLE.a(ip.o)
 .comment       0x0000000000000033       0x34 E:\PD_Fan\PD_Fan\Software\EXAM\BLE\LIB\libCH57xBLE.a(lle.o)
 .comment       0x0000000000000033       0x34 E:\PD_Fan\PD_Fan\Software\EXAM\BLE\LIB\libCH57xBLE.a(rf_fh.o)
 .comment       0x0000000000000033       0x34 E:\PD_Fan\PD_Fan\Software\EXAM\BLE\LIB\libCH57xBLE.a(rfend.o)
 .comment       0x0000000000000033       0x34 E:\PD_Fan\PD_Fan\Software\EXAM\BLE\LIB\libCH57xBLE.a(api_c.o)
 .comment       0x0000000000000033       0x34 E:\PD_Fan\PD_Fan\Software\EXAM\BLE\LIB\libCH57xBLE.a(ctl_input.o)
 .comment       0x0000000000000033       0x34 E:\PD_Fan\PD_Fan\Software\EXAM\BLE\LIB\libCH57xBLE.a(ctl_output.o)
 .comment       0x0000000000000033       0x34 E:\PD_Fan\PD_Fan\Software\EXAM\BLE\LIB\libCH57xBLE.a(broadcaster.o)
 .comment       0x0000000000000033       0x34 E:\PD_Fan\PD_Fan\Software\EXAM\BLE\LIB\libCH57xBLE.a(gapbondmgr.o)
 .comment       0x0000000000000033       0x34 E:\PD_Fan\PD_Fan\Software\EXAM\BLE\LIB\libCH57xBLE.a(peripheral.o)
 .comment       0x0000000000000033       0x34 E:\PD_Fan\PD_Fan\Software\EXAM\BLE\LIB\libCH57xBLE.a(role.o)
 .comment       0x0000000000000033       0x34 E:\PD_Fan\PD_Fan\Software\EXAM\BLE\LIB\libCH57xBLE.a(memory.o)
 .comment       0x0000000000000033       0x34 E:\PD_Fan\PD_Fan\Software\EXAM\BLE\LIB\libCH57xBLE.a(att_server.o)
 .comment       0x0000000000000033       0x34 E:\PD_Fan\PD_Fan\Software\EXAM\BLE\LIB\libCH57xBLE.a(ll.o)
 .comment       0x0000000000000033       0x34 E:\PD_Fan\PD_Fan\Software\EXAM\BLE\LIB\libCH57xBLE.a(ll_advertise.o)
 .comment       0x0000000000000033       0x34 E:\PD_Fan\PD_Fan\Software\EXAM\BLE\LIB\libCH57xBLE.a(ll_initiate.o)
 .comment       0x0000000000000033       0x34 E:\PD_Fan\PD_Fan\Software\EXAM\BLE\LIB\libCH57xBLE.a(ll_resolvinglist.o)
 .comment       0x0000000000000033       0x34 E:\PD_Fan\PD_Fan\Software\EXAM\BLE\LIB\libCH57xBLE.a(ll_address.o)

.debug_frame    0x0000000000000000     0x1808
 .debug_frame   0x0000000000000000       0xc0 ./StdPeriphDriver/CH57x_adc.o
 .debug_frame   0x00000000000000c0      0x204 ./StdPeriphDriver/CH57x_clk.o
 .debug_frame   0x00000000000002c4       0x70 ./StdPeriphDriver/CH57x_gpio.o
 .debug_frame   0x0000000000000334      0x114 ./StdPeriphDriver/CH57x_sys.o
 .debug_frame   0x0000000000000448       0x60 ./StdPeriphDriver/CH57x_timer1.o
 .debug_frame   0x00000000000004a8       0x60 ./StdPeriphDriver/CH57x_timer2.o
 .debug_frame   0x0000000000000508       0x9c ./StdPeriphDriver/CH57x_uart1.o
 .debug_frame   0x00000000000005a4      0x138 ./Profile/debug_service.o
 .debug_frame   0x00000000000006dc       0x80 ./Profile/devinfoservice.o
 .debug_frame   0x000000000000075c      0x10c ./HAL/MCU.o
 .debug_frame   0x0000000000000868       0x50 ./HAL/RTC.o
 .debug_frame   0x00000000000008b8       0xcc ./APP/Fan.o
 .debug_frame   0x0000000000000984       0x78 ./APP/User_config.o
 .debug_frame   0x00000000000009fc      0x128 ./APP/peripheral.o
 .debug_frame   0x0000000000000b24       0x40 ./APP/peripheral_main.o
 .debug_frame   0x0000000000000b64       0x20 c:/mounriver/mounriver_studio/toolchain/risc-v embedded gcc/bin/../lib/gcc/riscv-none-embed/8.2.0/rv32imac/ilp32\libgcc.a(_lshrdi3.o)
 .debug_frame   0x0000000000000b84       0x54 c:/mounriver/mounriver_studio/toolchain/risc-v embedded gcc/bin/../lib/gcc/riscv-none-embed/8.2.0/rv32imac/ilp32\libgcc.a(muldf3.o)
 .debug_frame   0x0000000000000bd8       0x38 c:/mounriver/mounriver_studio/toolchain/risc-v embedded gcc/bin/../lib/gcc/riscv-none-embed/8.2.0/rv32imac/ilp32\libgcc.a(floatsidf.o)
 .debug_frame   0x0000000000000c10       0x50 c:/mounriver/mounriver_studio/toolchain/risc-v embedded gcc/bin/../lib/gcc/riscv-none-embed/8.2.0/rv32imac/ilp32\libgcc.a(mulsf3.o)
 .debug_frame   0x0000000000000c60       0x20 c:/mounriver/mounriver_studio/toolchain/risc-v embedded gcc/bin/../lib/gcc/riscv-none-embed/8.2.0/rv32imac/ilp32\libgcc.a(fixsfsi.o)
 .debug_frame   0x0000000000000c80       0x20 c:/mounriver/mounriver_studio/toolchain/risc-v embedded gcc/bin/../lib/gcc/riscv-none-embed/8.2.0/rv32imac/ilp32\libgcc.a(fixunssfsi.o)
 .debug_frame   0x0000000000000ca0       0x38 c:/mounriver/mounriver_studio/toolchain/risc-v embedded gcc/bin/../lib/gcc/riscv-none-embed/8.2.0/rv32imac/ilp32\libgcc.a(floatsisf.o)
 .debug_frame   0x0000000000000cd8       0x20 c:/mounriver/mounriver_studio/toolchain/risc-v embedded gcc/bin/../lib/gcc/riscv-none-embed/8.2.0/rv32imac/ilp32\libgcc.a(truncdfsf2.o)
 .debug_frame   0x0000000000000cf8       0x20 c:/mounriver/mounriver_studio/toolchain/risc-v embedded gcc/bin/../lib/gcc/riscv-none-embed/8.2.0/rv32imac/ilp32\libgcc.a(_clzsi2.o)
 .debug_frame   0x0000000000000d18       0x20 c:/mounriver/mounriver_studio/toolchain/risc-v embedded gcc/bin/../lib/gcc/riscv-none-embed/8.2.0/../../../../riscv-none-embed/lib/rv32imac/ilp32\libg_nano.a(lib_a-memcpy.o)
 .debug_frame   0x0000000000000d38       0x54 c:/mounriver/mounriver_studio/toolchain/risc-v embedded gcc/bin/../lib/gcc/riscv-none-embed/8.2.0/../../../../riscv-none-embed/lib/rv32imac/ilp32\libg_nano.a(lib_a-printf.o)
 .debug_frame   0x0000000000000d8c       0x54 c:/mounriver/mounriver_studio/toolchain/risc-v embedded gcc/bin/../lib/gcc/riscv-none-embed/8.2.0/../../../../riscv-none-embed/lib/rv32imac/ilp32\libg_nano.a(lib_a-puts.o)
 .debug_frame   0x0000000000000de0       0x3c c:/mounriver/mounriver_studio/toolchain/risc-v embedded gcc/bin/../lib/gcc/riscv-none-embed/8.2.0/../../../../riscv-none-embed/lib/rv32imac/ilp32\libg_nano.a(lib_a-vsprintf.o)
 .debug_frame   0x0000000000000e1c       0x50 c:/mounriver/mounriver_studio/toolchain/risc-v embedded gcc/bin/../lib/gcc/riscv-none-embed/8.2.0/../../../../riscv-none-embed/lib/rv32imac/ilp32\libg_nano.a(lib_a-wbuf.o)
 .debug_frame   0x0000000000000e6c       0x3c c:/mounriver/mounriver_studio/toolchain/risc-v embedded gcc/bin/../lib/gcc/riscv-none-embed/8.2.0/../../../../riscv-none-embed/lib/rv32imac/ilp32\libg_nano.a(lib_a-wsetup.o)
 .debug_frame   0x0000000000000ea8       0x7c c:/mounriver/mounriver_studio/toolchain/risc-v embedded gcc/bin/../lib/gcc/riscv-none-embed/8.2.0/../../../../riscv-none-embed/lib/rv32imac/ilp32\libg_nano.a(lib_a-fflush.o)
 .debug_frame   0x0000000000000f24      0x148 c:/mounriver/mounriver_studio/toolchain/risc-v embedded gcc/bin/../lib/gcc/riscv-none-embed/8.2.0/../../../../riscv-none-embed/lib/rv32imac/ilp32\libg_nano.a(lib_a-findfp.o)
 .debug_frame   0x000000000000106c       0x88 c:/mounriver/mounriver_studio/toolchain/risc-v embedded gcc/bin/../lib/gcc/riscv-none-embed/8.2.0/../../../../riscv-none-embed/lib/rv32imac/ilp32\libg_nano.a(lib_a-fwalk.o)
 .debug_frame   0x00000000000010f4       0x64 c:/mounriver/mounriver_studio/toolchain/risc-v embedded gcc/bin/../lib/gcc/riscv-none-embed/8.2.0/../../../../riscv-none-embed/lib/rv32imac/ilp32\libg_nano.a(lib_a-makebuf.o)
 .debug_frame   0x0000000000001158       0x40 c:/mounriver/mounriver_studio/toolchain/risc-v embedded gcc/bin/../lib/gcc/riscv-none-embed/8.2.0/../../../../riscv-none-embed/lib/rv32imac/ilp32\libg_nano.a(lib_a-nano-freer.o)
 .debug_frame   0x0000000000001198       0x40 c:/mounriver/mounriver_studio/toolchain/risc-v embedded gcc/bin/../lib/gcc/riscv-none-embed/8.2.0/../../../../riscv-none-embed/lib/rv32imac/ilp32\libg_nano.a(lib_a-nano-mallocr.o)
 .debug_frame   0x00000000000011d8       0xe0 c:/mounriver/mounriver_studio/toolchain/risc-v embedded gcc/bin/../lib/gcc/riscv-none-embed/8.2.0/../../../../riscv-none-embed/lib/rv32imac/ilp32\libg_nano.a(lib_a-nano-svfprintf.o)
 .debug_frame   0x00000000000012b8       0xd0 c:/mounriver/mounriver_studio/toolchain/risc-v embedded gcc/bin/../lib/gcc/riscv-none-embed/8.2.0/../../../../riscv-none-embed/lib/rv32imac/ilp32\libg_nano.a(lib_a-nano-vfprintf.o)
 .debug_frame   0x0000000000001388       0x8c c:/mounriver/mounriver_studio/toolchain/risc-v embedded gcc/bin/../lib/gcc/riscv-none-embed/8.2.0/../../../../riscv-none-embed/lib/rv32imac/ilp32\libg_nano.a(lib_a-nano-vfprintf_i.o)
 .debug_frame   0x0000000000001414       0x30 c:/mounriver/mounriver_studio/toolchain/risc-v embedded gcc/bin/../lib/gcc/riscv-none-embed/8.2.0/../../../../riscv-none-embed/lib/rv32imac/ilp32\libg_nano.a(lib_a-sbrkr.o)
 .debug_frame   0x0000000000001444       0xa4 c:/mounriver/mounriver_studio/toolchain/risc-v embedded gcc/bin/../lib/gcc/riscv-none-embed/8.2.0/../../../../riscv-none-embed/lib/rv32imac/ilp32\libg_nano.a(lib_a-stdio.o)
 .debug_frame   0x00000000000014e8       0x30 c:/mounriver/mounriver_studio/toolchain/risc-v embedded gcc/bin/../lib/gcc/riscv-none-embed/8.2.0/../../../../riscv-none-embed/lib/rv32imac/ilp32\libg_nano.a(lib_a-writer.o)
 .debug_frame   0x0000000000001518       0x30 c:/mounriver/mounriver_studio/toolchain/risc-v embedded gcc/bin/../lib/gcc/riscv-none-embed/8.2.0/../../../../riscv-none-embed/lib/rv32imac/ilp32\libg_nano.a(lib_a-closer.o)
 .debug_frame   0x0000000000001548       0x30 c:/mounriver/mounriver_studio/toolchain/risc-v embedded gcc/bin/../lib/gcc/riscv-none-embed/8.2.0/../../../../riscv-none-embed/lib/rv32imac/ilp32\libg_nano.a(lib_a-fstatr.o)
 .debug_frame   0x0000000000001578       0x30 c:/mounriver/mounriver_studio/toolchain/risc-v embedded gcc/bin/../lib/gcc/riscv-none-embed/8.2.0/../../../../riscv-none-embed/lib/rv32imac/ilp32\libg_nano.a(lib_a-isattyr.o)
 .debug_frame   0x00000000000015a8       0x30 c:/mounriver/mounriver_studio/toolchain/risc-v embedded gcc/bin/../lib/gcc/riscv-none-embed/8.2.0/../../../../riscv-none-embed/lib/rv32imac/ilp32\libg_nano.a(lib_a-lseekr.o)
 .debug_frame   0x00000000000015d8       0x20 c:/mounriver/mounriver_studio/toolchain/risc-v embedded gcc/bin/../lib/gcc/riscv-none-embed/8.2.0/../../../../riscv-none-embed/lib/rv32imac/ilp32\libg_nano.a(lib_a-memchr.o)
 .debug_frame   0x00000000000015f8       0x20 c:/mounriver/mounriver_studio/toolchain/risc-v embedded gcc/bin/../lib/gcc/riscv-none-embed/8.2.0/../../../../riscv-none-embed/lib/rv32imac/ilp32\libg_nano.a(lib_a-memmove.o)
 .debug_frame   0x0000000000001618       0x30 c:/mounriver/mounriver_studio/toolchain/risc-v embedded gcc/bin/../lib/gcc/riscv-none-embed/8.2.0/../../../../riscv-none-embed/lib/rv32imac/ilp32\libg_nano.a(lib_a-mlock.o)
 .debug_frame   0x0000000000001648       0x40 c:/mounriver/mounriver_studio/toolchain/risc-v embedded gcc/bin/../lib/gcc/riscv-none-embed/8.2.0/../../../../riscv-none-embed/lib/rv32imac/ilp32\libg_nano.a(lib_a-nano-reallocr.o)
 .debug_frame   0x0000000000001688       0x30 c:/mounriver/mounriver_studio/toolchain/risc-v embedded gcc/bin/../lib/gcc/riscv-none-embed/8.2.0/../../../../riscv-none-embed/lib/rv32imac/ilp32\libg_nano.a(lib_a-readr.o)
 .debug_frame   0x00000000000016b8       0x70 c:/mounriver/mounriver_studio/toolchain/risc-v embedded gcc/bin/../lib/gcc/riscv-none-embed/8.2.0/../../../../riscv-none-embed/lib/rv32imac/ilp32\libg_nano.a(lib_a-reent.o)
 .debug_frame   0x0000000000001728       0x20 c:/mounriver/mounriver_studio/toolchain/risc-v embedded gcc/bin/../lib/gcc/riscv-none-embed/8.2.0/../../../../riscv-none-embed/lib/rv32imac/ilp32\libg_nano.a(lib_a-nano-msizer.o)
 .debug_frame   0x0000000000001748       0x20 c:/mounriver/mounriver_studio/toolchain/risc-v embedded gcc/bin/../lib/gcc/riscv-none-embed/8.2.0/../../../../riscv-none-embed/lib/rv32imac/ilp32\libnosys.a(close.o)
 .debug_frame   0x0000000000001768       0x20 c:/mounriver/mounriver_studio/toolchain/risc-v embedded gcc/bin/../lib/gcc/riscv-none-embed/8.2.0/../../../../riscv-none-embed/lib/rv32imac/ilp32\libnosys.a(fstat.o)
 .debug_frame   0x0000000000001788       0x20 c:/mounriver/mounriver_studio/toolchain/risc-v embedded gcc/bin/../lib/gcc/riscv-none-embed/8.2.0/../../../../riscv-none-embed/lib/rv32imac/ilp32\libnosys.a(isatty.o)
 .debug_frame   0x00000000000017a8       0x20 c:/mounriver/mounriver_studio/toolchain/risc-v embedded gcc/bin/../lib/gcc/riscv-none-embed/8.2.0/../../../../riscv-none-embed/lib/rv32imac/ilp32\libnosys.a(lseek.o)
 .debug_frame   0x00000000000017c8       0x20 c:/mounriver/mounriver_studio/toolchain/risc-v embedded gcc/bin/../lib/gcc/riscv-none-embed/8.2.0/../../../../riscv-none-embed/lib/rv32imac/ilp32\libnosys.a(read.o)
 .debug_frame   0x00000000000017e8       0x20 c:/mounriver/mounriver_studio/toolchain/risc-v embedded gcc/bin/../lib/gcc/riscv-none-embed/8.2.0/../../../../riscv-none-embed/lib/rv32imac/ilp32\libnosys.a(sbrk.o)

.stab           0x0000000000000000       0x84
 .stab          0x0000000000000000       0x24 c:/mounriver/mounriver_studio/toolchain/risc-v embedded gcc/bin/../lib/gcc/riscv-none-embed/8.2.0/../../../../riscv-none-embed/lib/rv32imac/ilp32\libnosys.a(close.o)
 .stab          0x0000000000000024       0x18 c:/mounriver/mounriver_studio/toolchain/risc-v embedded gcc/bin/../lib/gcc/riscv-none-embed/8.2.0/../../../../riscv-none-embed/lib/rv32imac/ilp32\libnosys.a(fstat.o)
                                         0x24 (size before relaxing)
 .stab          0x000000000000003c       0x18 c:/mounriver/mounriver_studio/toolchain/risc-v embedded gcc/bin/../lib/gcc/riscv-none-embed/8.2.0/../../../../riscv-none-embed/lib/rv32imac/ilp32\libnosys.a(isatty.o)
                                         0x24 (size before relaxing)
 .stab          0x0000000000000054       0x18 c:/mounriver/mounriver_studio/toolchain/risc-v embedded gcc/bin/../lib/gcc/riscv-none-embed/8.2.0/../../../../riscv-none-embed/lib/rv32imac/ilp32\libnosys.a(lseek.o)
                                         0x24 (size before relaxing)
 .stab          0x000000000000006c       0x18 c:/mounriver/mounriver_studio/toolchain/risc-v embedded gcc/bin/../lib/gcc/riscv-none-embed/8.2.0/../../../../riscv-none-embed/lib/rv32imac/ilp32\libnosys.a(read.o)
                                         0x24 (size before relaxing)

.stabstr        0x0000000000000000      0x117
 .stabstr       0x0000000000000000      0x117 c:/mounriver/mounriver_studio/toolchain/risc-v embedded gcc/bin/../lib/gcc/riscv-none-embed/8.2.0/../../../../riscv-none-embed/lib/rv32imac/ilp32\libnosys.a(close.o)
